
HronoV.1.elf:     file format elf32-avr

Sections:
Idx Name          Size      VMA       LMA       File off  Algn
  0 .data         0000009c  00800100  0000227e  00002312  2**0
                  CONTENTS, ALLOC, LOAD, DATA
  1 .text         0000227e  00000000  00000000  00000094  2**1
                  CONTENTS, ALLOC, LOAD, READONLY, CODE
  2 .bss          000004c6  0080019c  0080019c  000023ae  2**0
                  ALLOC
  3 .comment      0000005c  00000000  00000000  000023ae  2**0
                  CONTENTS, READONLY
  4 .note.gnu.avr.deviceinfo 00000040  00000000  00000000  0000240c  2**2
                  CONTENTS, READONLY
  5 .debug_aranges 00000368  00000000  00000000  0000244c  2**0
                  CONTENTS, READONLY, DEBUGGING
  6 .debug_info   00003b8b  00000000  00000000  000027b4  2**0
                  CONTENTS, READONLY, DEBUGGING
  7 .debug_abbrev 000011b5  00000000  00000000  0000633f  2**0
                  CONTENTS, READONLY, DEBUGGING
  8 .debug_line   00001aca  00000000  00000000  000074f4  2**0
                  CONTENTS, READONLY, DEBUGGING
  9 .debug_frame  00000b5c  00000000  00000000  00008fc0  2**2
                  CONTENTS, READONLY, DEBUGGING
 10 .debug_str    00000c8f  00000000  00000000  00009b1c  2**0
                  CONTENTS, READONLY, DEBUGGING
 11 .debug_loc    000032e9  00000000  00000000  0000a7ab  2**0
                  CONTENTS, READONLY, DEBUGGING
 12 .debug_ranges 000003b0  00000000  00000000  0000da94  2**0
                  CONTENTS, READONLY, DEBUGGING

Disassembly of section .text:

00000000 <__vectors>:
       0:	0c 94 1d 02 	jmp	0x43a	; 0x43a <__ctors_end>
       4:	0c 94 fa 05 	jmp	0xbf4	; 0xbf4 <__vector_1>
       8:	0c 94 c6 05 	jmp	0xb8c	; 0xb8c <__vector_2>
       c:	0c 94 3a 02 	jmp	0x474	; 0x474 <__bad_interrupt>
      10:	0c 94 3a 02 	jmp	0x474	; 0x474 <__bad_interrupt>
      14:	0c 94 3a 02 	jmp	0x474	; 0x474 <__bad_interrupt>
      18:	0c 94 3a 02 	jmp	0x474	; 0x474 <__bad_interrupt>
      1c:	0c 94 3a 02 	jmp	0x474	; 0x474 <__bad_interrupt>
      20:	0c 94 3a 02 	jmp	0x474	; 0x474 <__bad_interrupt>
      24:	0c 94 3a 02 	jmp	0x474	; 0x474 <__bad_interrupt>
      28:	0c 94 3a 02 	jmp	0x474	; 0x474 <__bad_interrupt>
      2c:	0c 94 3a 02 	jmp	0x474	; 0x474 <__bad_interrupt>
      30:	0c 94 3a 02 	jmp	0x474	; 0x474 <__bad_interrupt>
      34:	0c 94 3a 02 	jmp	0x474	; 0x474 <__bad_interrupt>
      38:	0c 94 3a 02 	jmp	0x474	; 0x474 <__bad_interrupt>
      3c:	0c 94 3a 02 	jmp	0x474	; 0x474 <__bad_interrupt>
      40:	0c 94 40 06 	jmp	0xc80	; 0xc80 <__vector_16>
      44:	0c 94 3a 02 	jmp	0x474	; 0x474 <__bad_interrupt>
      48:	0c 94 9a 09 	jmp	0x1334	; 0x1334 <__vector_18>
      4c:	0c 94 7c 09 	jmp	0x12f8	; 0x12f8 <__vector_19>
      50:	0c 94 3a 02 	jmp	0x474	; 0x474 <__bad_interrupt>
      54:	0c 94 3a 02 	jmp	0x474	; 0x474 <__bad_interrupt>
      58:	0c 94 3a 02 	jmp	0x474	; 0x474 <__bad_interrupt>
      5c:	0c 94 3a 02 	jmp	0x474	; 0x474 <__bad_interrupt>
      60:	0c 94 3a 02 	jmp	0x474	; 0x474 <__bad_interrupt>
      64:	0c 94 3a 02 	jmp	0x474	; 0x474 <__bad_interrupt>

00000068 <__trampolines_end>:
      68:	6e 61       	ori	r22, 0x1E	; 30
      6a:	6e 00       	.word	0x006e	; ????

0000006c <__c.2332>:
      6c:	69 6e 66 00 00 40 7a 10 f3 5a 00 a0 72 4e 18 09     inf..@z..Z..rN..
      7c:	00 10 a5 d4 e8 00 00 e8 76 48 17 00 00 e4 0b 54     ........vH.....T
      8c:	02 00 00 ca 9a 3b 00 00 00 e1 f5 05 00 00 80 96     .....;..........
      9c:	98 00 00 00 40 42 0f 00 00 00 a0 86 01 00 00 00     ....@B..........
      ac:	10 27 00 00 00 00 e8 03 00 00 00 00 64 00 00 00     .'..........d...
      bc:	00 00 0a 00 00 00 00 00 01 00 00 00 00 00 2c 76     ..............,v
      cc:	d8 88 dc 67 4f 08 23 df c1 df ae 59 e1 b1 b7 96     ...gO.#....Y....
      dc:	e5 e3 e4 53 c6 3a e6 51 99 76 96 e8 e6 c2 84 26     ...S.:.Q.v.....&
      ec:	eb 89 8c 9b 62 ed 40 7c 6f fc ef bc 9c 9f 40 f2     ....b.@|o.....@.
      fc:	ba a5 6f a5 f4 90 05 5a 2a f7 5c 93 6b 6c f9 67     ..o....Z*.\.kl.g
     10c:	6d c1 1b fc e0 e4 0d 47 fe f5 20 e6 b5 00 d0 ed     m......G.. .....
     11c:	90 2e 03 00 94 35 77 05 00 80 84 1e 08 00 00 20     .....5w........ 
     12c:	4e 0a 00 00 00 c8 0c 33 33 33 33 0f 98 6e 12 83     N......3333..n..
     13c:	11 41 ef 8d 21 14 89 3b e6 55 16 cf fe e6 db 18     .A..!..;.U......
     14c:	d1 84 4b 38 1b f7 7c 1d 90 1d a4 bb e4 24 20 32     ..K8..|......$ 2
     15c:	84 72 5e 22 81 00 c9 f1 24 ec a1 e5 3d 27           .r^"....$...='

0000016a <menuText_Exit>:
     16a:	45 78 69 74 00                                      Exit.

0000016f <menuText_BulletMass>:
     16f:	42 75 6c 6c 65 74 20 6d 61 73 73 3a 20 25 2e 31     Bullet mass: %.1
     17f:	66 20 67 00                                         f g.

00000183 <menuText_Language>:
     183:	4c 61 6e 67 75 61 67 65 20 3a 20 25 73 00           Language : %s.

00000191 <menuText_Mode>:
     191:	4d 6f 64 65 20 3a 20 25 73 00                       Mode : %s.

0000019b <special_char>:
     19b:	bc 5f 9c 60 a4 61 84 62 b6 63 96 64 b0 65 9f 66     ._.`.a.b.c.d.e.f
     1ab:	b5 67 ff ff                                         .g..

000001af <ssd1306oled_font>:
	...
     1b7:	00 2f 00 00 00 00 07 00 07 00 00 14 7f 14 7f 14     ./..............
     1c7:	00 24 2a 7f 2a 12 00 62 64 08 13 23 00 36 49 55     .$*.*..bd..#.6IU
     1d7:	22 50 00 00 05 03 00 00 00 00 1c 22 41 00 00 00     "P........."A...
     1e7:	41 22 1c 00 00 14 08 3e 08 14 00 08 08 3e 08 08     A".....>.....>..
     1f7:	00 00 00 a0 60 00 00 08 08 08 08 08 00 00 60 60     ....`.........``
     207:	00 00 00 20 10 08 04 02 00 3e 51 49 45 3e 00 00     ... .....>QIE>..
     217:	42 7f 40 00 00 42 61 51 49 46 00 21 41 45 4b 31     B.@..BaQIF.!AEK1
     227:	00 18 14 12 7f 10 00 27 45 45 45 39 00 3c 4a 49     .......'EEE9.<JI
     237:	49 30 00 01 71 09 05 03 00 36 49 49 49 36 00 06     I0..q....6III6..
     247:	49 49 29 1e 00 00 36 36 00 00 00 00 56 36 00 00     II)...66....V6..
     257:	00 08 14 22 41 00 00 14 14 14 14 14 00 00 41 22     ..."A.........A"
     267:	14 08 00 02 01 51 09 06 00 32 49 59 51 3e 00 7c     .....Q...2IYQ>.|
     277:	12 11 12 7c 00 7f 49 49 49 36 00 3e 41 41 41 22     ...|..III6.>AAA"
     287:	00 7f 41 41 22 1c 00 7f 49 49 49 41 00 7f 09 09     ..AA"...IIIA....
     297:	09 01 00 3e 41 49 49 7a 00 7f 08 08 08 7f 00 00     ...>AIIz........
     2a7:	41 7f 41 00 00 20 40 41 3f 01 00 7f 08 14 22 41     A.A.. @A?....."A
     2b7:	00 7f 40 40 40 40 00 7f 02 0c 02 7f 00 7f 04 08     ..@@@@..........
     2c7:	10 7f 00 3e 41 41 41 3e 00 7f 09 09 09 06 00 3e     ...>AAA>.......>
     2d7:	41 51 21 5e 00 7f 09 19 29 46 00 46 49 49 49 31     AQ!^....)F.FIII1
     2e7:	00 01 01 7f 01 01 00 3f 40 40 40 3f 00 1f 20 40     .......?@@@?.. @
     2f7:	20 1f 00 3f 40 38 40 3f 00 63 14 08 14 63 00 07      ..?@8@?.c...c..
     307:	08 70 08 07 00 61 51 49 45 43 00 00 7f 41 41 00     .p...aQIEC...AA.
     317:	00 55 2a 55 2a 55 00 00 41 41 7f 00 00 04 02 01     .U*U*U..AA......
     327:	02 04 00 40 40 40 40 40 00 00 01 02 04 00 00 20     ...@@@@@....... 
     337:	54 54 54 78 00 7f 48 44 44 38 00 38 44 44 44 20     TTTx..HDD8.8DDD 
     347:	00 38 44 44 48 7f 00 38 54 54 54 18 00 08 7e 09     .8DDH..8TTT...~.
     357:	01 02 00 18 a4 a4 a4 7c 00 7f 08 04 04 78 00 00     .......|.....x..
     367:	44 7d 40 00 00 40 80 84 7d 00 00 7f 10 28 44 00     D}@..@..}....(D.
     377:	00 00 41 7f 40 00 00 7c 04 18 04 78 00 7c 08 04     ..A.@..|...x.|..
     387:	04 78 00 38 44 44 44 38 00 fc 24 24 24 18 00 18     .x.8DDD8..$$$...
     397:	24 24 18 fc 00 7c 08 04 04 08 00 48 54 54 54 20     $$...|.....HTTT 
     3a7:	00 04 3f 44 40 20 00 3c 40 40 20 7c 00 1c 20 40     ..?D@ .<@@ |.. @
     3b7:	20 1c 00 3c 40 30 40 3c 00 44 28 10 28 44 00 1c      ..<@0@<.D(.(D..
     3c7:	a0 a0 a0 7c 00 44 64 54 4c 44 00 00 08 77 41 00     ...|.DdTLD...wA.
     3d7:	00 00 00 63 00 00 00 00 41 77 08 00 00 08 04 08     ...c....Aw......
     3e7:	08 04 00 3a 40 40 20 7a 00 3d 40 40 40 3d 00 21     ...:@@ z.=@@@=.!
     3f7:	54 54 54 79 00 7d 12 11 12 7d 00 39 44 44 44 39     TTTy.}...}.9DDD9
     407:	00 3d 42 42 42 3d 00 02 05 02 00 00 00 7e 01 49     .=BBB=.......~.I
     417:	55 73 00 7c 10 10 08 1c                             Us.|....

0000041f <init_sequence>:
     41f:	ae 20 00 b0 c8 00 10 40 81 3f a1 a6 a8 3f a4 d3     . .....@.?...?..
     42f:	00 d5 f0 d9 22 da 12 db 20 8d 14                    ...."... ..

0000043a <__ctors_end>:
     43a:	11 24       	eor	r1, r1
     43c:	1f be       	out	0x3f, r1	; 63
     43e:	cf ef       	ldi	r28, 0xFF	; 255
     440:	d8 e0       	ldi	r29, 0x08	; 8
     442:	de bf       	out	0x3e, r29	; 62
     444:	cd bf       	out	0x3d, r28	; 61

00000446 <__do_copy_data>:
     446:	11 e0       	ldi	r17, 0x01	; 1
     448:	a0 e0       	ldi	r26, 0x00	; 0
     44a:	b1 e0       	ldi	r27, 0x01	; 1
     44c:	ee e7       	ldi	r30, 0x7E	; 126
     44e:	f2 e2       	ldi	r31, 0x22	; 34
     450:	02 c0       	rjmp	.+4      	; 0x456 <__do_copy_data+0x10>
     452:	05 90       	lpm	r0, Z+
     454:	0d 92       	st	X+, r0
     456:	ac 39       	cpi	r26, 0x9C	; 156
     458:	b1 07       	cpc	r27, r17
     45a:	d9 f7       	brne	.-10     	; 0x452 <__do_copy_data+0xc>

0000045c <__do_clear_bss>:
     45c:	26 e0       	ldi	r18, 0x06	; 6
     45e:	ac e9       	ldi	r26, 0x9C	; 156
     460:	b1 e0       	ldi	r27, 0x01	; 1
     462:	01 c0       	rjmp	.+2      	; 0x466 <.do_clear_bss_start>

00000464 <.do_clear_bss_loop>:
     464:	1d 92       	st	X+, r1

00000466 <.do_clear_bss_start>:
     466:	a2 36       	cpi	r26, 0x62	; 98
     468:	b2 07       	cpc	r27, r18
     46a:	e1 f7       	brne	.-8      	; 0x464 <.do_clear_bss_loop>
     46c:	0e 94 14 05 	call	0xa28	; 0xa28 <main>
     470:	0c 94 3d 11 	jmp	0x227a	; 0x227a <_exit>

00000474 <__bad_interrupt>:
     474:	0c 94 00 00 	jmp	0	; 0x0 <__vectors>

00000478 <button_down>:
	if(buttons_up & (1 << bCode)){
		return 1;
	}else{
		return 0;
	}
}
     478:	20 91 9e 01 	lds	r18, 0x019E	; 0x80019e <buttons_down>
     47c:	30 e0       	ldi	r19, 0x00	; 0
     47e:	a9 01       	movw	r20, r18
     480:	02 c0       	rjmp	.+4      	; 0x486 <button_down+0xe>
     482:	55 95       	asr	r21
     484:	47 95       	ror	r20
     486:	8a 95       	dec	r24
     488:	e2 f7       	brpl	.-8      	; 0x482 <button_down+0xa>
     48a:	ca 01       	movw	r24, r20
     48c:	81 70       	andi	r24, 0x01	; 1
     48e:	08 95       	ret

00000490 <buttons_update>:

void buttons_update(){
     490:	e0 e0       	ldi	r30, 0x00	; 0
     492:	f1 e0       	ldi	r31, 0x01	; 1
     494:	43 e0       	ldi	r20, 0x03	; 3
     496:	51 e0       	ldi	r21, 0x01	; 1
				buttons_pressed &= ~(1 << buttons_scanArray[i]);
				buttons_up |= (1 << buttons_scanArray[i]);
			} 
			else
			{
				buttons_up &= ~(1 << buttons_scanArray[i]);
     498:	61 e0       	ldi	r22, 0x01	; 1
     49a:	70 e0       	ldi	r23, 0x00	; 0
}

void buttons_update(){
	int i;
	for(i = 0; i < sizeof(buttons_scanArray); i++){
		if(BUTTONS_PIN & (1 << buttons_scanArray[i])){
     49c:	86 b1       	in	r24, 0x06	; 6
     49e:	21 91       	ld	r18, Z+
     4a0:	90 e0       	ldi	r25, 0x00	; 0
     4a2:	02 2e       	mov	r0, r18
     4a4:	02 c0       	rjmp	.+4      	; 0x4aa <buttons_update+0x1a>
     4a6:	95 95       	asr	r25
     4a8:	87 95       	ror	r24
     4aa:	0a 94       	dec	r0
     4ac:	e2 f7       	brpl	.-8      	; 0x4a6 <buttons_update+0x16>
     4ae:	80 ff       	sbrs	r24, 0
     4b0:	33 c0       	rjmp	.+102    	; 0x518 <buttons_update+0x88>
			if(buttons_down & (1 << buttons_scanArray[i]) ){
     4b2:	30 91 9e 01 	lds	r19, 0x019E	; 0x80019e <buttons_down>
     4b6:	83 2f       	mov	r24, r19
     4b8:	90 e0       	ldi	r25, 0x00	; 0
     4ba:	02 2e       	mov	r0, r18
     4bc:	02 c0       	rjmp	.+4      	; 0x4c2 <buttons_update+0x32>
     4be:	95 95       	asr	r25
     4c0:	87 95       	ror	r24
     4c2:	0a 94       	dec	r0
     4c4:	e2 f7       	brpl	.-8      	; 0x4be <buttons_update+0x2e>
     4c6:	80 ff       	sbrs	r24, 0
     4c8:	12 c0       	rjmp	.+36     	; 0x4ee <buttons_update+0x5e>
				buttons_down &= ~(1 << buttons_scanArray[i]);
     4ca:	41 e0       	ldi	r20, 0x01	; 1
     4cc:	50 e0       	ldi	r21, 0x00	; 0
     4ce:	02 c0       	rjmp	.+4      	; 0x4d4 <buttons_update+0x44>
     4d0:	44 0f       	add	r20, r20
     4d2:	55 1f       	adc	r21, r21
     4d4:	2a 95       	dec	r18
     4d6:	e2 f7       	brpl	.-8      	; 0x4d0 <buttons_update+0x40>
     4d8:	84 2f       	mov	r24, r20
     4da:	80 95       	com	r24
     4dc:	83 23       	and	r24, r19
     4de:	80 93 9e 01 	sts	0x019E, r24	; 0x80019e <buttons_down>
				buttons_pressed |= (1 << buttons_scanArray[i]);
     4e2:	80 91 9d 01 	lds	r24, 0x019D	; 0x80019d <buttons_pressed>
     4e6:	48 2b       	or	r20, r24
     4e8:	40 93 9d 01 	sts	0x019D, r20	; 0x80019d <buttons_pressed>
				return;
     4ec:	08 95       	ret
			}else if(buttons_pressed & (1 << buttons_scanArray[i])){
     4ee:	80 91 9d 01 	lds	r24, 0x019D	; 0x80019d <buttons_pressed>
     4f2:	90 e0       	ldi	r25, 0x00	; 0
     4f4:	02 2e       	mov	r0, r18
     4f6:	02 c0       	rjmp	.+4      	; 0x4fc <buttons_update+0x6c>
     4f8:	95 95       	asr	r25
     4fa:	87 95       	ror	r24
     4fc:	0a 94       	dec	r0
     4fe:	e2 f7       	brpl	.-8      	; 0x4f8 <buttons_update+0x68>
     500:	80 fd       	sbrc	r24, 0
     502:	37 c0       	rjmp	.+110    	; 0x572 <buttons_update+0xe2>
				return;
			}else{
				buttons_down |= (1 << buttons_scanArray[i]);
     504:	cb 01       	movw	r24, r22
     506:	02 c0       	rjmp	.+4      	; 0x50c <buttons_update+0x7c>
     508:	88 0f       	add	r24, r24
     50a:	99 1f       	adc	r25, r25
     50c:	2a 95       	dec	r18
     50e:	e2 f7       	brpl	.-8      	; 0x508 <buttons_update+0x78>
     510:	83 2b       	or	r24, r19
     512:	80 93 9e 01 	sts	0x019E, r24	; 0x80019e <buttons_down>
     516:	29 c0       	rjmp	.+82     	; 0x56a <buttons_update+0xda>
			}
		}else{
			if (buttons_pressed & (1 << buttons_scanArray[i]))
     518:	30 91 9d 01 	lds	r19, 0x019D	; 0x80019d <buttons_pressed>
     51c:	83 2f       	mov	r24, r19
     51e:	90 e0       	ldi	r25, 0x00	; 0
     520:	02 2e       	mov	r0, r18
     522:	02 c0       	rjmp	.+4      	; 0x528 <buttons_update+0x98>
     524:	95 95       	asr	r25
     526:	87 95       	ror	r24
     528:	0a 94       	dec	r0
     52a:	e2 f7       	brpl	.-8      	; 0x524 <buttons_update+0x94>
     52c:	80 ff       	sbrs	r24, 0
     52e:	11 c0       	rjmp	.+34     	; 0x552 <buttons_update+0xc2>
			{
				buttons_pressed &= ~(1 << buttons_scanArray[i]);
     530:	cb 01       	movw	r24, r22
     532:	02 c0       	rjmp	.+4      	; 0x538 <buttons_update+0xa8>
     534:	88 0f       	add	r24, r24
     536:	99 1f       	adc	r25, r25
     538:	2a 95       	dec	r18
     53a:	e2 f7       	brpl	.-8      	; 0x534 <buttons_update+0xa4>
     53c:	98 2f       	mov	r25, r24
     53e:	90 95       	com	r25
     540:	39 23       	and	r19, r25
     542:	30 93 9d 01 	sts	0x019D, r19	; 0x80019d <buttons_pressed>
				buttons_up |= (1 << buttons_scanArray[i]);
     546:	90 91 9c 01 	lds	r25, 0x019C	; 0x80019c <__data_end>
     54a:	89 2b       	or	r24, r25
     54c:	80 93 9c 01 	sts	0x019C, r24	; 0x80019c <__data_end>
     550:	0c c0       	rjmp	.+24     	; 0x56a <buttons_update+0xda>
			} 
			else
			{
				buttons_up &= ~(1 << buttons_scanArray[i]);
     552:	cb 01       	movw	r24, r22
     554:	02 c0       	rjmp	.+4      	; 0x55a <buttons_update+0xca>
     556:	88 0f       	add	r24, r24
     558:	99 1f       	adc	r25, r25
     55a:	2a 95       	dec	r18
     55c:	e2 f7       	brpl	.-8      	; 0x556 <buttons_update+0xc6>
     55e:	80 95       	com	r24
     560:	90 91 9c 01 	lds	r25, 0x019C	; 0x80019c <__data_end>
     564:	89 23       	and	r24, r25
     566:	80 93 9c 01 	sts	0x019C, r24	; 0x80019c <__data_end>
	}
}

void buttons_update(){
	int i;
	for(i = 0; i < sizeof(buttons_scanArray); i++){
     56a:	e4 17       	cp	r30, r20
     56c:	f5 07       	cpc	r31, r21
     56e:	09 f0       	breq	.+2      	; 0x572 <buttons_update+0xe2>
     570:	95 cf       	rjmp	.-214    	; 0x49c <buttons_update+0xc>
     572:	08 95       	ret

00000574 <Init>:
	{
	#ifdef USART0_RS485_MODE
		RS485_CONTROL0_DDR |= (1<<RS485_CONTROL0_IONUM); // default pin state is low
	#endif
		
		UBRR0L_REGISTER = (uint8_t) ubrr_value;
     574:	88 e0       	ldi	r24, 0x08	; 8
     576:	80 93 c4 00 	sts	0x00C4, r24	; 0x8000c4 <__TEXT_REGION_LENGTH__+0x7e00c4>
		
	#ifdef USART_SKIP_UBRRH_IF_ZERO
		if(__builtin_constant_p(ubrr_value))
			if(((ubrr_value>>8) != 0)) // requires -Os flag - do not use in non-inline functions
	#endif
			UBRR0H_REGISTER = (ubrr_value>>8);
     57a:	10 92 c5 00 	sts	0x00C5, r1	; 0x8000c5 <__TEXT_REGION_LENGTH__+0x7e00c5>
		#endif
	#elif defined(USART0_MPCM_MODE)
		UCSR0A_REGISTER |= (1<<MPCM0_BIT);
	#endif
		
		UCSR0B_REGISTER = USART0_CONFIG_B;
     57e:	88 e9       	ldi	r24, 0x98	; 152
     580:	80 93 c1 00 	sts	0x00C1, r24	; 0x8000c1 <__TEXT_REGION_LENGTH__+0x7e00c1>
void Init(){
	
	uart0_init(BAUD_CALC(115200));
	
	// Initialize ports for buttons
	DDRC	= (0 << PORTC0)|(0 <<PORTC1)|(0 << PORTC2); // Set buttons ports to inputs
     584:	17 b8       	out	0x07, r1	; 7
	PORTC	= (1 << PORTC0)|(1 <<PORTC1)|(1 << PORTC2); // Enable pull-up resistors
     586:	87 e0       	ldi	r24, 0x07	; 7
     588:	88 b9       	out	0x08, r24	; 8
	DDRD = (0 << PORTD3)|(0 << PORTD2);
     58a:	1a b8       	out	0x0a, r1	; 10
	//Initialize Timer0 for time measurements
	TCCR0A=(0<<COM0A1) | (0<<COM0A0) | (0<<COM0B1) | (0<<COM0B0) | (0<<WGM01) | (0<<WGM00);
     58c:	14 bc       	out	0x24, r1	; 36
	TCCR0B=(0<<WGM02) | (0<<CS02) | (0<<CS01) | (0<<CS00); //Timer Off
     58e:	15 bc       	out	0x25, r1	; 37
	TCNT0=0x00;
     590:	16 bc       	out	0x26, r1	; 38
	OCR0A=0x00;
     592:	17 bc       	out	0x27, r1	; 39
	OCR0B=0x00;
     594:	18 bc       	out	0x28, r1	; 40

	//Initialize interrupts
	// Timer/Counter 0 Interrupt(s) initialization
	TIMSK0=(0<<OCIE0B) | (0<<OCIE0A) | (1<<TOIE0); 
     596:	81 e0       	ldi	r24, 0x01	; 1
     598:	80 93 6e 00 	sts	0x006E, r24	; 0x80006e <__TEXT_REGION_LENGTH__+0x7e006e>
	// INT1: On
	// INT1 Mode: Rising Edge
	// Interrupt on any change on pins PCINT0-7: Off
	// Interrupt on any change on pins PCINT8-14: Off
	// Interrupt on any change on pins PCINT16-23: Off
	EICRA=(1<<ISC11) | (1<<ISC10) | (1<<ISC01) | (1<<ISC00);
     59c:	8f e0       	ldi	r24, 0x0F	; 15
     59e:	80 93 69 00 	sts	0x0069, r24	; 0x800069 <__TEXT_REGION_LENGTH__+0x7e0069>
	EIMSK=(1<<INT1) | (1<<INT0);
     5a2:	83 e0       	ldi	r24, 0x03	; 3
     5a4:	8d bb       	out	0x1d, r24	; 29
	EIFR=(1<<INTF1) | (1<<INTF0);
     5a6:	8c bb       	out	0x1c, r24	; 28
	PCICR=(0<<PCIE2) | (0<<PCIE1) | (0<<PCIE0);
     5a8:	10 92 68 00 	sts	0x0068, r1	; 0x800068 <__TEXT_REGION_LENGTH__+0x7e0068>
	
	//Initialize OLED Display
	lcd_init(LCD_DISP_ON); 
     5ac:	8f ea       	ldi	r24, 0xAF	; 175
     5ae:	0e 94 9f 07 	call	0xf3e	; 0xf3e <lcd_init>
		lcd_drawBitmap(64 , 20 , buletImg , 21,9 , WHITE);
		lcd_display();
		_delay_ms(3000);
	#endif
	
	stateSet(STATE_MAIN_SCREEN_UPDATE);
     5b2:	83 e0       	ldi	r24, 0x03	; 3
     5b4:	0e 94 78 09 	call	0x12f0	; 0x12f0 <stateSet>
     5b8:	08 95       	ret

000005ba <Calculate>:
		
		buttons_update();
    }
}

void Calculate(){
     5ba:	8f 92       	push	r8
     5bc:	9f 92       	push	r9
     5be:	af 92       	push	r10
     5c0:	bf 92       	push	r11
     5c2:	cf 92       	push	r12
     5c4:	df 92       	push	r13
     5c6:	ef 92       	push	r14
     5c8:	ff 92       	push	r15
     5ca:	0f 93       	push	r16
     5cc:	1f 93       	push	r17
     5ce:	cf 93       	push	r28
     5d0:	df 93       	push	r29
	float time = data.timeCounter; //time in ms
     5d2:	c0 90 a3 05 	lds	r12, 0x05A3	; 0x8005a3 <data>
     5d6:	d0 90 a4 05 	lds	r13, 0x05A4	; 0x8005a4 <data+0x1>
     5da:	e0 90 a5 05 	lds	r14, 0x05A5	; 0x8005a5 <data+0x2>
     5de:	f0 90 a6 05 	lds	r15, 0x05A6	; 0x8005a6 <data+0x3>
	if(!(time <= 0)){
     5e2:	20 e0       	ldi	r18, 0x00	; 0
     5e4:	30 e0       	ldi	r19, 0x00	; 0
     5e6:	a9 01       	movw	r20, r18
     5e8:	c7 01       	movw	r24, r14
     5ea:	b6 01       	movw	r22, r12
     5ec:	0e 94 d6 0d 	call	0x1bac	; 0x1bac <__cmpsf2>
     5f0:	18 16       	cp	r1, r24
     5f2:	0c f0       	brlt	.+2      	; 0x5f6 <Calculate+0x3c>
     5f4:	94 c0       	rjmp	.+296    	; 0x71e <Calculate+0x164>
		data.speed = ((double)DISTANCE/1000.0)/(time/1000.0);
     5f6:	20 e0       	ldi	r18, 0x00	; 0
     5f8:	30 e0       	ldi	r19, 0x00	; 0
     5fa:	4a e7       	ldi	r20, 0x7A	; 122
     5fc:	54 e4       	ldi	r21, 0x44	; 68
     5fe:	c7 01       	movw	r24, r14
     600:	b6 01       	movw	r22, r12
     602:	0e 94 db 0d 	call	0x1bb6	; 0x1bb6 <__divsf3>
     606:	9b 01       	movw	r18, r22
     608:	ac 01       	movw	r20, r24
     60a:	6d ec       	ldi	r22, 0xCD	; 205
     60c:	7c ec       	ldi	r23, 0xCC	; 204
     60e:	8c ec       	ldi	r24, 0xCC	; 204
     610:	9d e3       	ldi	r25, 0x3D	; 61
     612:	0e 94 db 0d 	call	0x1bb6	; 0x1bb6 <__divsf3>
     616:	6b 01       	movw	r12, r22
     618:	7c 01       	movw	r14, r24
     61a:	c3 ea       	ldi	r28, 0xA3	; 163
     61c:	d5 e0       	ldi	r29, 0x05	; 5
     61e:	6c 83       	std	Y+4, r22	; 0x04
     620:	7d 83       	std	Y+5, r23	; 0x05
     622:	8e 83       	std	Y+6, r24	; 0x06
     624:	9f 83       	std	Y+7, r25	; 0x07

		data.energy = ((settings.bullet_mass/1000.0) * (data.speed * data.speed))/2.0;
     626:	20 e0       	ldi	r18, 0x00	; 0
     628:	30 e0       	ldi	r19, 0x00	; 0
     62a:	4a e7       	ldi	r20, 0x7A	; 122
     62c:	54 e4       	ldi	r21, 0x44	; 68
     62e:	60 91 51 01 	lds	r22, 0x0151	; 0x800151 <settings+0x3>
     632:	70 91 52 01 	lds	r23, 0x0152	; 0x800152 <settings+0x4>
     636:	80 91 53 01 	lds	r24, 0x0153	; 0x800153 <settings+0x5>
     63a:	90 91 54 01 	lds	r25, 0x0154	; 0x800154 <settings+0x6>
     63e:	0e 94 db 0d 	call	0x1bb6	; 0x1bb6 <__divsf3>
     642:	4b 01       	movw	r8, r22
     644:	5c 01       	movw	r10, r24
     646:	a7 01       	movw	r20, r14
     648:	96 01       	movw	r18, r12
     64a:	c7 01       	movw	r24, r14
     64c:	b6 01       	movw	r22, r12
     64e:	0e 94 04 0f 	call	0x1e08	; 0x1e08 <__mulsf3>
     652:	9b 01       	movw	r18, r22
     654:	ac 01       	movw	r20, r24
     656:	c5 01       	movw	r24, r10
     658:	b4 01       	movw	r22, r8
     65a:	0e 94 04 0f 	call	0x1e08	; 0x1e08 <__mulsf3>
     65e:	20 e0       	ldi	r18, 0x00	; 0
     660:	30 e0       	ldi	r19, 0x00	; 0
     662:	40 e0       	ldi	r20, 0x00	; 0
     664:	5f e3       	ldi	r21, 0x3F	; 63
     666:	0e 94 04 0f 	call	0x1e08	; 0x1e08 <__mulsf3>
     66a:	68 87       	std	Y+8, r22	; 0x08
     66c:	79 87       	std	Y+9, r23	; 0x09
     66e:	8a 87       	std	Y+10, r24	; 0x0a
     670:	9b 87       	std	Y+11, r25	; 0x0b
	
		if(data._buff_counter++ > 25) data._buff_counter = 0;
     672:	8c 85       	ldd	r24, Y+12	; 0x0c
     674:	9d 85       	ldd	r25, Y+13	; 0x0d
     676:	8a 31       	cpi	r24, 0x1A	; 26
     678:	91 05       	cpc	r25, r1
     67a:	34 f4       	brge	.+12     	; 0x688 <Calculate+0xce>
     67c:	01 96       	adiw	r24, 0x01	; 1
     67e:	90 93 b0 05 	sts	0x05B0, r25	; 0x8005b0 <data+0xd>
     682:	80 93 af 05 	sts	0x05AF, r24	; 0x8005af <data+0xc>
     686:	04 c0       	rjmp	.+8      	; 0x690 <Calculate+0xd6>
     688:	10 92 b0 05 	sts	0x05B0, r1	; 0x8005b0 <data+0xd>
     68c:	10 92 af 05 	sts	0x05AF, r1	; 0x8005af <data+0xc>
	
		data.lastShoots[data._buff_counter] = data.speed;
     690:	e3 ea       	ldi	r30, 0xA3	; 163
     692:	f5 e0       	ldi	r31, 0x05	; 5
     694:	a4 85       	ldd	r26, Z+12	; 0x0c
     696:	b5 85       	ldd	r27, Z+13	; 0x0d
     698:	aa 0f       	add	r26, r26
     69a:	bb 1f       	adc	r27, r27
     69c:	aa 0f       	add	r26, r26
     69e:	bb 1f       	adc	r27, r27
     6a0:	ad 55       	subi	r26, 0x5D	; 93
     6a2:	ba 4f       	sbci	r27, 0xFA	; 250
     6a4:	1e 96       	adiw	r26, 0x0e	; 14
     6a6:	cd 92       	st	X+, r12
     6a8:	dd 92       	st	X+, r13
     6aa:	ed 92       	st	X+, r14
     6ac:	fc 92       	st	X, r15
     6ae:	51 97       	sbiw	r26, 0x11	; 17
	
		data.maxSpeed = data.lastShoots[0];
     6b0:	86 84       	ldd	r8, Z+14	; 0x0e
     6b2:	97 84       	ldd	r9, Z+15	; 0x0f
     6b4:	a0 88       	ldd	r10, Z+16	; 0x10
     6b6:	b1 88       	ldd	r11, Z+17	; 0x11
     6b8:	88 2d       	mov	r24, r8
     6ba:	99 2d       	mov	r25, r9
     6bc:	aa 2d       	mov	r26, r10
     6be:	bb 2d       	mov	r27, r11
     6c0:	80 93 15 06 	sts	0x0615, r24	; 0x800615 <data+0x72>
     6c4:	90 93 16 06 	sts	0x0616, r25	; 0x800616 <data+0x73>
     6c8:	a0 93 17 06 	sts	0x0617, r26	; 0x800617 <data+0x74>
     6cc:	b0 93 18 06 	sts	0x0618, r27	; 0x800618 <data+0x75>
     6d0:	c5 eb       	ldi	r28, 0xB5	; 181
     6d2:	d5 e0       	ldi	r29, 0x05	; 5
     6d4:	05 e1       	ldi	r16, 0x15	; 21
     6d6:	16 e0       	ldi	r17, 0x06	; 6
     6d8:	12 c0       	rjmp	.+36     	; 0x6fe <Calculate+0x144>
		int i;
		for (i = 0; i < 25; i++)
		{
			if(data.maxSpeed < data.lastShoots[i])
     6da:	c9 90       	ld	r12, Y+
     6dc:	d9 90       	ld	r13, Y+
     6de:	e9 90       	ld	r14, Y+
     6e0:	f9 90       	ld	r15, Y+
     6e2:	28 2d       	mov	r18, r8
     6e4:	39 2d       	mov	r19, r9
     6e6:	4a 2d       	mov	r20, r10
     6e8:	5b 2d       	mov	r21, r11
     6ea:	c7 01       	movw	r24, r14
     6ec:	b6 01       	movw	r22, r12
     6ee:	0e 94 ff 0e 	call	0x1dfe	; 0x1dfe <__gesf2>
     6f2:	18 16       	cp	r1, r24
     6f4:	24 f4       	brge	.+8      	; 0x6fe <Calculate+0x144>
			data.maxSpeed = data.lastShoots[i];
     6f6:	8c 2c       	mov	r8, r12
     6f8:	9d 2c       	mov	r9, r13
     6fa:	ae 2c       	mov	r10, r14
     6fc:	bf 2c       	mov	r11, r15
	
		data.lastShoots[data._buff_counter] = data.speed;
	
		data.maxSpeed = data.lastShoots[0];
		int i;
		for (i = 0; i < 25; i++)
     6fe:	c0 17       	cp	r28, r16
     700:	d1 07       	cpc	r29, r17
     702:	59 f7       	brne	.-42     	; 0x6da <Calculate+0x120>
     704:	88 2d       	mov	r24, r8
     706:	99 2d       	mov	r25, r9
     708:	aa 2d       	mov	r26, r10
     70a:	bb 2d       	mov	r27, r11
     70c:	80 93 15 06 	sts	0x0615, r24	; 0x800615 <data+0x72>
     710:	90 93 16 06 	sts	0x0616, r25	; 0x800616 <data+0x73>
     714:	a0 93 17 06 	sts	0x0617, r26	; 0x800617 <data+0x74>
     718:	b0 93 18 06 	sts	0x0618, r27	; 0x800618 <data+0x75>
     71c:	12 c0       	rjmp	.+36     	; 0x742 <Calculate+0x188>
		{
			if(data.maxSpeed < data.lastShoots[i])
			data.maxSpeed = data.lastShoots[i];
		} 
	}else{
		data.speed = 0;
     71e:	e3 ea       	ldi	r30, 0xA3	; 163
     720:	f5 e0       	ldi	r31, 0x05	; 5
     722:	14 82       	std	Z+4, r1	; 0x04
     724:	15 82       	std	Z+5, r1	; 0x05
     726:	16 82       	std	Z+6, r1	; 0x06
     728:	17 82       	std	Z+7, r1	; 0x07
		data.energy = 0;
     72a:	10 86       	std	Z+8, r1	; 0x08
     72c:	11 86       	std	Z+9, r1	; 0x09
     72e:	12 86       	std	Z+10, r1	; 0x0a
     730:	13 86       	std	Z+11, r1	; 0x0b
		data.maxSpeed = 0;
     732:	10 92 15 06 	sts	0x0615, r1	; 0x800615 <data+0x72>
     736:	10 92 16 06 	sts	0x0616, r1	; 0x800616 <data+0x73>
     73a:	10 92 17 06 	sts	0x0617, r1	; 0x800617 <data+0x74>
     73e:	10 92 18 06 	sts	0x0618, r1	; 0x800618 <data+0x75>
	}
}
     742:	df 91       	pop	r29
     744:	cf 91       	pop	r28
     746:	1f 91       	pop	r17
     748:	0f 91       	pop	r16
     74a:	ff 90       	pop	r15
     74c:	ef 90       	pop	r14
     74e:	df 90       	pop	r13
     750:	cf 90       	pop	r12
     752:	bf 90       	pop	r11
     754:	af 90       	pop	r10
     756:	9f 90       	pop	r9
     758:	8f 90       	pop	r8
     75a:	08 95       	ret

0000075c <DisplayMenu>:



void DisplayMenu(){
     75c:	bf 92       	push	r11
     75e:	cf 92       	push	r12
     760:	df 92       	push	r13
     762:	ef 92       	push	r14
     764:	ff 92       	push	r15
     766:	0f 93       	push	r16
     768:	1f 93       	push	r17
     76a:	cf 93       	push	r28
     76c:	df 93       	push	r29
     76e:	cd b7       	in	r28, 0x3d	; 61
     770:	de b7       	in	r29, 0x3e	; 62
     772:	a0 97       	sbiw	r28, 0x20	; 32
     774:	0f b6       	in	r0, 0x3f	; 63
     776:	f8 94       	cli
     778:	de bf       	out	0x3e, r29	; 62
     77a:	0f be       	out	0x3f, r0	; 63
     77c:	cd bf       	out	0x3d, r28	; 61
	
	char buffer[32] = {};
     77e:	fe 01       	movw	r30, r28
     780:	31 96       	adiw	r30, 0x01	; 1
     782:	80 e2       	ldi	r24, 0x20	; 32
     784:	df 01       	movw	r26, r30
     786:	1d 92       	st	X+, r1
     788:	8a 95       	dec	r24
     78a:	e9 f7       	brne	.-6      	; 0x786 <DisplayMenu+0x2a>
	lcd_clrscr();
     78c:	0e 94 7d 07 	call	0xefa	; 0xefa <lcd_clrscr>
	lcd_gotoxy(9 , 0);
     790:	60 e0       	ldi	r22, 0x00	; 0
     792:	89 e0       	ldi	r24, 0x09	; 9
     794:	0e 94 71 07 	call	0xee2	; 0xee2 <lcd_gotoxy>
	lcd_puts("Menu");
     798:	85 e5       	ldi	r24, 0x55	; 85
     79a:	91 e0       	ldi	r25, 0x01	; 1
     79c:	0e 94 4e 09 	call	0x129c	; 0x129c <lcd_puts>
     7a0:	0f 2e       	mov	r0, r31
     7a2:	f3 e0       	ldi	r31, 0x03	; 3
     7a4:	ef 2e       	mov	r14, r31
     7a6:	f1 e0       	ldi	r31, 0x01	; 1
     7a8:	ff 2e       	mov	r15, r31
     7aa:	f0 2d       	mov	r31, r0
     7ac:	bb 24       	eor	r11, r11
     7ae:	b3 94       	inc	r11
				sprintf_P(buffer , menu[i].str ,(*menu[i].vars)[(*menu[i].var_selected)]);
			}else{
				sprintf_P(buffer , menu[i].str ,(*menu[i].var_inputFloat));
			}
		}else{
			sprintf_P(buffer , menu[i].str);
     7b0:	fe 01       	movw	r30, r28
     7b2:	31 96       	adiw	r30, 0x01	; 1
     7b4:	6f 01       	movw	r12, r30
	lcd_puts("Menu");

	int i;
	for (i = 0 ; i < 4; i++)
	{
		lcd_gotoxy(0 , 1 + i);
     7b6:	6b 2d       	mov	r22, r11
     7b8:	80 e0       	ldi	r24, 0x00	; 0
     7ba:	0e 94 71 07 	call	0xee2	; 0xee2 <lcd_gotoxy>
     7be:	87 01       	movw	r16, r14
		
		if(menu[i].selected)
     7c0:	d7 01       	movw	r26, r14
     7c2:	8c 91       	ld	r24, X
     7c4:	88 23       	and	r24, r24
     7c6:	29 f0       	breq	.+10     	; 0x7d2 <DisplayMenu+0x76>
			lcd_puts(">");
     7c8:	8a e5       	ldi	r24, 0x5A	; 90
     7ca:	91 e0       	ldi	r25, 0x01	; 1
     7cc:	0e 94 4e 09 	call	0x129c	; 0x129c <lcd_puts>
     7d0:	04 c0       	rjmp	.+8      	; 0x7da <DisplayMenu+0x7e>
		else
			lcd_puts(" ");
     7d2:	8c e5       	ldi	r24, 0x5C	; 92
     7d4:	91 e0       	ldi	r25, 0x01	; 1
     7d6:	0e 94 4e 09 	call	0x129c	; 0x129c <lcd_puts>
		
		if(menu[i].vars_count > 0){
     7da:	f8 01       	movw	r30, r16
     7dc:	81 85       	ldd	r24, Z+9	; 0x09
     7de:	88 23       	and	r24, r24
     7e0:	09 f4       	brne	.+2      	; 0x7e4 <DisplayMenu+0x88>
     7e2:	42 c0       	rjmp	.+132    	; 0x868 <DisplayMenu+0x10c>
			if(menu[i].vars_count > 1){
     7e4:	82 30       	cpi	r24, 0x02	; 2
     7e6:	18 f1       	brcs	.+70     	; 0x82e <DisplayMenu+0xd2>
				sprintf_P(buffer , menu[i].str ,(*menu[i].vars)[(*menu[i].var_selected)]);
     7e8:	23 81       	ldd	r18, Z+3	; 0x03
     7ea:	34 81       	ldd	r19, Z+4	; 0x04
     7ec:	07 80       	ldd	r0, Z+7	; 0x07
     7ee:	f0 85       	ldd	r31, Z+8	; 0x08
     7f0:	e0 2d       	mov	r30, r0
     7f2:	80 81       	ld	r24, Z
     7f4:	e8 2f       	mov	r30, r24
     7f6:	f0 e0       	ldi	r31, 0x00	; 0
     7f8:	ee 0f       	add	r30, r30
     7fa:	ff 1f       	adc	r31, r31
     7fc:	e2 0f       	add	r30, r18
     7fe:	f3 1f       	adc	r31, r19
     800:	81 81       	ldd	r24, Z+1	; 0x01
     802:	8f 93       	push	r24
     804:	80 81       	ld	r24, Z
     806:	8f 93       	push	r24
     808:	d8 01       	movw	r26, r16
     80a:	12 96       	adiw	r26, 0x02	; 2
     80c:	8c 91       	ld	r24, X
     80e:	12 97       	sbiw	r26, 0x02	; 2
     810:	8f 93       	push	r24
     812:	11 96       	adiw	r26, 0x01	; 1
     814:	8c 91       	ld	r24, X
     816:	8f 93       	push	r24
     818:	df 92       	push	r13
     81a:	cf 92       	push	r12
     81c:	0e 94 bd 10 	call	0x217a	; 0x217a <sprintf_P>
     820:	0f 90       	pop	r0
     822:	0f 90       	pop	r0
     824:	0f 90       	pop	r0
     826:	0f 90       	pop	r0
     828:	0f 90       	pop	r0
     82a:	0f 90       	pop	r0
     82c:	29 c0       	rjmp	.+82     	; 0x880 <DisplayMenu+0x124>
			}else{
				sprintf_P(buffer , menu[i].str ,(*menu[i].var_inputFloat));
     82e:	d8 01       	movw	r26, r16
     830:	05 80       	ldd	r0, Z+5	; 0x05
     832:	f6 81       	ldd	r31, Z+6	; 0x06
     834:	e0 2d       	mov	r30, r0
     836:	83 81       	ldd	r24, Z+3	; 0x03
     838:	8f 93       	push	r24
     83a:	82 81       	ldd	r24, Z+2	; 0x02
     83c:	8f 93       	push	r24
     83e:	81 81       	ldd	r24, Z+1	; 0x01
     840:	8f 93       	push	r24
     842:	80 81       	ld	r24, Z
     844:	8f 93       	push	r24
     846:	12 96       	adiw	r26, 0x02	; 2
     848:	8c 91       	ld	r24, X
     84a:	12 97       	sbiw	r26, 0x02	; 2
     84c:	8f 93       	push	r24
     84e:	11 96       	adiw	r26, 0x01	; 1
     850:	8c 91       	ld	r24, X
     852:	8f 93       	push	r24
     854:	df 92       	push	r13
     856:	cf 92       	push	r12
     858:	0e 94 bd 10 	call	0x217a	; 0x217a <sprintf_P>
     85c:	0f b6       	in	r0, 0x3f	; 63
     85e:	f8 94       	cli
     860:	de bf       	out	0x3e, r29	; 62
     862:	0f be       	out	0x3f, r0	; 63
     864:	cd bf       	out	0x3d, r28	; 61
     866:	0c c0       	rjmp	.+24     	; 0x880 <DisplayMenu+0x124>
			}
		}else{
			sprintf_P(buffer , menu[i].str);
     868:	82 81       	ldd	r24, Z+2	; 0x02
     86a:	8f 93       	push	r24
     86c:	81 81       	ldd	r24, Z+1	; 0x01
     86e:	8f 93       	push	r24
     870:	df 92       	push	r13
     872:	cf 92       	push	r12
     874:	0e 94 bd 10 	call	0x217a	; 0x217a <sprintf_P>
     878:	0f 90       	pop	r0
     87a:	0f 90       	pop	r0
     87c:	0f 90       	pop	r0
     87e:	0f 90       	pop	r0
		}
		lcd_puts(buffer);
     880:	c6 01       	movw	r24, r12
     882:	0e 94 4e 09 	call	0x129c	; 0x129c <lcd_puts>
		lcd_display();
     886:	0e 94 5d 09 	call	0x12ba	; 0x12ba <lcd_display>
     88a:	b3 94       	inc	r11
     88c:	b0 e1       	ldi	r27, 0x10	; 16
     88e:	eb 0e       	add	r14, r27
     890:	f1 1c       	adc	r15, r1
	lcd_clrscr();
	lcd_gotoxy(9 , 0);
	lcd_puts("Menu");

	int i;
	for (i = 0 ; i < 4; i++)
     892:	e5 e0       	ldi	r30, 0x05	; 5
     894:	be 12       	cpse	r11, r30
     896:	8f cf       	rjmp	.-226    	; 0x7b6 <DisplayMenu+0x5a>
		lcd_display();
	}
	
	
	
}
     898:	a0 96       	adiw	r28, 0x20	; 32
     89a:	0f b6       	in	r0, 0x3f	; 63
     89c:	f8 94       	cli
     89e:	de bf       	out	0x3e, r29	; 62
     8a0:	0f be       	out	0x3f, r0	; 63
     8a2:	cd bf       	out	0x3d, r28	; 61
     8a4:	df 91       	pop	r29
     8a6:	cf 91       	pop	r28
     8a8:	1f 91       	pop	r17
     8aa:	0f 91       	pop	r16
     8ac:	ff 90       	pop	r15
     8ae:	ef 90       	pop	r14
     8b0:	df 90       	pop	r13
     8b2:	cf 90       	pop	r12
     8b4:	bf 90       	pop	r11
     8b6:	08 95       	ret

000008b8 <DisplayUpdate>:

void DisplayUpdate(){
     8b8:	df 92       	push	r13
     8ba:	ef 92       	push	r14
     8bc:	ff 92       	push	r15
     8be:	0f 93       	push	r16
     8c0:	1f 93       	push	r17
     8c2:	cf 93       	push	r28
     8c4:	df 93       	push	r29
     8c6:	cd b7       	in	r28, 0x3d	; 61
     8c8:	de b7       	in	r29, 0x3e	; 62
     8ca:	a0 97       	sbiw	r28, 0x20	; 32
     8cc:	0f b6       	in	r0, 0x3f	; 63
     8ce:	f8 94       	cli
     8d0:	de bf       	out	0x3e, r29	; 62
     8d2:	0f be       	out	0x3f, r0	; 63
     8d4:	cd bf       	out	0x3d, r28	; 61
	
	char buffer[32] = {};
     8d6:	ce 01       	movw	r24, r28
     8d8:	01 96       	adiw	r24, 0x01	; 1
     8da:	7c 01       	movw	r14, r24
     8dc:	80 e2       	ldi	r24, 0x20	; 32
     8de:	f7 01       	movw	r30, r14
     8e0:	11 92       	st	Z+, r1
     8e2:	8a 95       	dec	r24
     8e4:	e9 f7       	brne	.-6      	; 0x8e0 <DisplayUpdate+0x28>
	lcd_clrscr();
     8e6:	0e 94 7d 07 	call	0xefa	; 0xefa <lcd_clrscr>
	lcd_charMode(DOUBLESIZE);
     8ea:	82 e0       	ldi	r24, 0x02	; 2
     8ec:	0e 94 4b 09 	call	0x1296	; 0x1296 <lcd_charMode>
	lcd_gotoxy(0,0);
     8f0:	60 e0       	ldi	r22, 0x00	; 0
     8f2:	80 e0       	ldi	r24, 0x00	; 0
     8f4:	0e 94 71 07 	call	0xee2	; 0xee2 <lcd_gotoxy>
	sprintf(buffer , "%05.1lf m/s" , data.speed);
     8f8:	03 ea       	ldi	r16, 0xA3	; 163
     8fa:	15 e0       	ldi	r17, 0x05	; 5
     8fc:	f8 01       	movw	r30, r16
     8fe:	87 81       	ldd	r24, Z+7	; 0x07
     900:	8f 93       	push	r24
     902:	86 81       	ldd	r24, Z+6	; 0x06
     904:	8f 93       	push	r24
     906:	85 81       	ldd	r24, Z+5	; 0x05
     908:	8f 93       	push	r24
     90a:	84 81       	ldd	r24, Z+4	; 0x04
     90c:	8f 93       	push	r24
     90e:	86 e7       	ldi	r24, 0x76	; 118
     910:	91 e0       	ldi	r25, 0x01	; 1
     912:	9f 93       	push	r25
     914:	8f 93       	push	r24
     916:	ff 92       	push	r15
     918:	ef 92       	push	r14
     91a:	0e 94 9b 10 	call	0x2136	; 0x2136 <sprintf>
	lcd_puts(buffer);
     91e:	c7 01       	movw	r24, r14
     920:	0e 94 4e 09 	call	0x129c	; 0x129c <lcd_puts>
	lcd_gotoxy(0,2);
     924:	62 e0       	ldi	r22, 0x02	; 2
     926:	80 e0       	ldi	r24, 0x00	; 0
     928:	0e 94 71 07 	call	0xee2	; 0xee2 <lcd_gotoxy>
	if(data.energy < 1){
     92c:	f8 01       	movw	r30, r16
     92e:	f0 84       	ldd	r15, Z+8	; 0x08
     930:	e1 84       	ldd	r14, Z+9	; 0x09
     932:	d2 84       	ldd	r13, Z+10	; 0x0a
     934:	13 85       	ldd	r17, Z+11	; 0x0b
     936:	0f b6       	in	r0, 0x3f	; 63
     938:	f8 94       	cli
     93a:	de bf       	out	0x3e, r29	; 62
     93c:	0f be       	out	0x3f, r0	; 63
     93e:	cd bf       	out	0x3d, r28	; 61
     940:	20 e0       	ldi	r18, 0x00	; 0
     942:	30 e0       	ldi	r19, 0x00	; 0
     944:	40 e8       	ldi	r20, 0x80	; 128
     946:	5f e3       	ldi	r21, 0x3F	; 63
     948:	6f 2d       	mov	r22, r15
     94a:	7e 2d       	mov	r23, r14
     94c:	8d 2d       	mov	r24, r13
     94e:	91 2f       	mov	r25, r17
     950:	0e 94 d6 0d 	call	0x1bac	; 0x1bac <__cmpsf2>
     954:	88 23       	and	r24, r24
     956:	f4 f4       	brge	.+60     	; 0x994 <__stack+0x95>
		sprintf(buffer , "%05.2f mJ" , data.energy*1000.0);
     958:	20 e0       	ldi	r18, 0x00	; 0
     95a:	30 e0       	ldi	r19, 0x00	; 0
     95c:	4a e7       	ldi	r20, 0x7A	; 122
     95e:	54 e4       	ldi	r21, 0x44	; 68
     960:	6f 2d       	mov	r22, r15
     962:	7e 2d       	mov	r23, r14
     964:	8d 2d       	mov	r24, r13
     966:	91 2f       	mov	r25, r17
     968:	0e 94 04 0f 	call	0x1e08	; 0x1e08 <__mulsf3>
     96c:	9f 93       	push	r25
     96e:	8f 93       	push	r24
     970:	7f 93       	push	r23
     972:	6f 93       	push	r22
     974:	8e e5       	ldi	r24, 0x5E	; 94
     976:	91 e0       	ldi	r25, 0x01	; 1
     978:	9f 93       	push	r25
     97a:	8f 93       	push	r24
     97c:	ce 01       	movw	r24, r28
     97e:	01 96       	adiw	r24, 0x01	; 1
     980:	9f 93       	push	r25
     982:	8f 93       	push	r24
     984:	0e 94 9b 10 	call	0x2136	; 0x2136 <sprintf>
     988:	0f b6       	in	r0, 0x3f	; 63
     98a:	f8 94       	cli
     98c:	de bf       	out	0x3e, r29	; 62
     98e:	0f be       	out	0x3f, r0	; 63
     990:	cd bf       	out	0x3d, r28	; 61
     992:	13 c0       	rjmp	.+38     	; 0x9ba <__stack+0xbb>
	}else{
		sprintf(buffer , "%05.1f  J" , data.energy);
     994:	1f 93       	push	r17
     996:	df 92       	push	r13
     998:	ef 92       	push	r14
     99a:	ff 92       	push	r15
     99c:	88 e6       	ldi	r24, 0x68	; 104
     99e:	91 e0       	ldi	r25, 0x01	; 1
     9a0:	9f 93       	push	r25
     9a2:	8f 93       	push	r24
     9a4:	ce 01       	movw	r24, r28
     9a6:	01 96       	adiw	r24, 0x01	; 1
     9a8:	9f 93       	push	r25
     9aa:	8f 93       	push	r24
     9ac:	0e 94 9b 10 	call	0x2136	; 0x2136 <sprintf>
     9b0:	0f b6       	in	r0, 0x3f	; 63
     9b2:	f8 94       	cli
     9b4:	de bf       	out	0x3e, r29	; 62
     9b6:	0f be       	out	0x3f, r0	; 63
     9b8:	cd bf       	out	0x3d, r28	; 61
	}
	lcd_puts(buffer);
     9ba:	8e 01       	movw	r16, r28
     9bc:	0f 5f       	subi	r16, 0xFF	; 255
     9be:	1f 4f       	sbci	r17, 0xFF	; 255
     9c0:	c8 01       	movw	r24, r16
     9c2:	0e 94 4e 09 	call	0x129c	; 0x129c <lcd_puts>
	
	lcd_charMode(NORMALSIZE);
     9c6:	81 e0       	ldi	r24, 0x01	; 1
     9c8:	0e 94 4b 09 	call	0x1296	; 0x1296 <lcd_charMode>
	lcd_gotoxy(0,5);
     9cc:	65 e0       	ldi	r22, 0x05	; 5
     9ce:	80 e0       	ldi	r24, 0x00	; 0
     9d0:	0e 94 71 07 	call	0xee2	; 0xee2 <lcd_gotoxy>
	sprintf(buffer , "max:%05.1lf m/s" , data.maxSpeed);
     9d4:	e5 e1       	ldi	r30, 0x15	; 21
     9d6:	f6 e0       	ldi	r31, 0x06	; 6
     9d8:	83 81       	ldd	r24, Z+3	; 0x03
     9da:	8f 93       	push	r24
     9dc:	82 81       	ldd	r24, Z+2	; 0x02
     9de:	8f 93       	push	r24
     9e0:	81 81       	ldd	r24, Z+1	; 0x01
     9e2:	8f 93       	push	r24
     9e4:	80 81       	ld	r24, Z
     9e6:	8f 93       	push	r24
     9e8:	82 e7       	ldi	r24, 0x72	; 114
     9ea:	91 e0       	ldi	r25, 0x01	; 1
     9ec:	9f 93       	push	r25
     9ee:	8f 93       	push	r24
     9f0:	1f 93       	push	r17
     9f2:	0f 93       	push	r16
     9f4:	0e 94 9b 10 	call	0x2136	; 0x2136 <sprintf>
	lcd_puts(buffer);
     9f8:	c8 01       	movw	r24, r16
     9fa:	0e 94 4e 09 	call	0x129c	; 0x129c <lcd_puts>
	lcd_display();
     9fe:	0e 94 5d 09 	call	0x12ba	; 0x12ba <lcd_display>
}
     a02:	0f b6       	in	r0, 0x3f	; 63
     a04:	f8 94       	cli
     a06:	de bf       	out	0x3e, r29	; 62
     a08:	0f be       	out	0x3f, r0	; 63
     a0a:	cd bf       	out	0x3d, r28	; 61
     a0c:	a0 96       	adiw	r28, 0x20	; 32
     a0e:	0f b6       	in	r0, 0x3f	; 63
     a10:	f8 94       	cli
     a12:	de bf       	out	0x3e, r29	; 62
     a14:	0f be       	out	0x3f, r0	; 63
     a16:	cd bf       	out	0x3d, r28	; 61
     a18:	df 91       	pop	r29
     a1a:	cf 91       	pop	r28
     a1c:	1f 91       	pop	r17
     a1e:	0f 91       	pop	r16
     a20:	ff 90       	pop	r15
     a22:	ef 90       	pop	r14
     a24:	df 90       	pop	r13
     a26:	08 95       	ret

00000a28 <main>:
	stateSet(STATE_MAIN_SCREEN_UPDATE);
}

int main(void)
{
	Init();
     a28:	0e 94 ba 02 	call	0x574	; 0x574 <Init>
	#else
		//round up by default
		__ticks_dc = (uint32_t)(ceil(fabs(__tmp)));
	#endif

	__builtin_avr_delay_cycles(__ticks_dc);
     a2c:	2f ef       	ldi	r18, 0xFF	; 255
     a2e:	81 ee       	ldi	r24, 0xE1	; 225
     a30:	94 e0       	ldi	r25, 0x04	; 4
     a32:	21 50       	subi	r18, 0x01	; 1
     a34:	80 40       	sbci	r24, 0x00	; 0
     a36:	90 40       	sbci	r25, 0x00	; 0
     a38:	e1 f7       	brne	.-8      	; 0xa32 <main+0xa>
     a3a:	00 c0       	rjmp	.+0      	; 0xa3c <main+0x14>
     a3c:	00 00       	nop
	_delay_ms(100);
	sei();
     a3e:	78 94       	sei
		
	
		if(stateGet() == STATE_MENU_IDLE){
			uint8_t curr_selecteed = 0;
			for(curr_selecteed = 0; curr_selecteed < 4; curr_selecteed++){
				if(menu[curr_selecteed].selected)
     a40:	c3 e0       	ldi	r28, 0x03	; 3
     a42:	d1 e0       	ldi	r29, 0x01	; 1
		}
		
	
		if(stateGet() == STATE_MENU_IDLE){
			uint8_t curr_selecteed = 0;
			for(curr_selecteed = 0; curr_selecteed < 4; curr_selecteed++){
     a44:	04 e0       	ldi	r16, 0x04	; 4
     a46:	0f 2e       	mov	r0, r31
     a48:	f3 e0       	ldi	r31, 0x03	; 3
     a4a:	ff 2e       	mov	r15, r31
     a4c:	f0 2d       	mov	r31, r0
	Init();
	_delay_ms(100);
	sei();
    while (1) 
	{
		switch(stateGet()){
     a4e:	0e 94 75 09 	call	0x12ea	; 0x12ea <stateGet>
     a52:	83 30       	cpi	r24, 0x03	; 3
     a54:	19 f0       	breq	.+6      	; 0xa5c <main+0x34>
     a56:	85 30       	cpi	r24, 0x05	; 5
     a58:	49 f0       	breq	.+18     	; 0xa6c <main+0x44>
     a5a:	0e c0       	rjmp	.+28     	; 0xa78 <main+0x50>
			case STATE_MAIN_SCREEN_UPDATE:
				Calculate();
     a5c:	0e 94 dd 02 	call	0x5ba	; 0x5ba <Calculate>
				DisplayUpdate();
     a60:	0e 94 5c 04 	call	0x8b8	; 0x8b8 <DisplayUpdate>
				stateSet(STATE_IDLE);
     a64:	80 e0       	ldi	r24, 0x00	; 0
     a66:	0e 94 78 09 	call	0x12f0	; 0x12f0 <stateSet>
			break;
     a6a:	77 c0       	rjmp	.+238    	; 0xb5a <main+0x132>
			case STATE_MENU_SCREEN_UPDATE:
				DisplayMenu();
     a6c:	0e 94 ae 03 	call	0x75c	; 0x75c <DisplayMenu>
				stateSet(STATE_MENU_IDLE);
     a70:	86 e0       	ldi	r24, 0x06	; 6
     a72:	0e 94 78 09 	call	0x12f0	; 0x12f0 <stateSet>
			break; 
     a76:	71 c0       	rjmp	.+226    	; 0xb5a <main+0x132>
		}
		
	
		if(stateGet() == STATE_MENU_IDLE){
     a78:	0e 94 75 09 	call	0x12ea	; 0x12ea <stateGet>
     a7c:	86 30       	cpi	r24, 0x06	; 6
     a7e:	09 f0       	breq	.+2      	; 0xa82 <main+0x5a>
     a80:	61 c0       	rjmp	.+194    	; 0xb44 <main+0x11c>
			uint8_t curr_selecteed = 0;
			for(curr_selecteed = 0; curr_selecteed < 4; curr_selecteed++){
				if(menu[curr_selecteed].selected)
     a82:	88 81       	ld	r24, Y
     a84:	81 11       	cpse	r24, r1
     a86:	6e c0       	rjmp	.+220    	; 0xb64 <main+0x13c>
     a88:	88 89       	ldd	r24, Y+16	; 0x10
     a8a:	81 11       	cpse	r24, r1
     a8c:	09 c0       	rjmp	.+18     	; 0xaa0 <main+0x78>
     a8e:	88 a1       	ldd	r24, Y+32	; 0x20
     a90:	81 11       	cpse	r24, r1
     a92:	08 c0       	rjmp	.+16     	; 0xaa4 <main+0x7c>
     a94:	88 a9       	ldd	r24, Y+48	; 0x30
     a96:	88 23       	and	r24, r24
     a98:	09 f4       	brne	.+2      	; 0xa9c <main+0x74>
     a9a:	6a c0       	rjmp	.+212    	; 0xb70 <main+0x148>
		}
		
	
		if(stateGet() == STATE_MENU_IDLE){
			uint8_t curr_selecteed = 0;
			for(curr_selecteed = 0; curr_selecteed < 4; curr_selecteed++){
     a9c:	1f 2d       	mov	r17, r15
     a9e:	03 c0       	rjmp	.+6      	; 0xaa6 <main+0x7e>
     aa0:	11 e0       	ldi	r17, 0x01	; 1
     aa2:	01 c0       	rjmp	.+2      	; 0xaa6 <main+0x7e>
     aa4:	12 e0       	ldi	r17, 0x02	; 2
				if(menu[curr_selecteed].selected)
					break;
			}
			
			if(button_down(BUTTON_UP)){
     aa6:	80 e0       	ldi	r24, 0x00	; 0
     aa8:	0e 94 3c 02 	call	0x478	; 0x478 <button_down>
     aac:	88 23       	and	r24, r24
     aae:	d1 f0       	breq	.+52     	; 0xae4 <main+0xbc>
				if(curr_selecteed > 0){
     ab0:	11 23       	and	r17, r17
     ab2:	09 f4       	brne	.+2      	; 0xab6 <main+0x8e>
     ab4:	4f c0       	rjmp	.+158    	; 0xb54 <main+0x12c>
     ab6:	01 c0       	rjmp	.+2      	; 0xaba <main+0x92>
		}
		
	
		if(stateGet() == STATE_MENU_IDLE){
			uint8_t curr_selecteed = 0;
			for(curr_selecteed = 0; curr_selecteed < 4; curr_selecteed++){
     ab8:	10 2f       	mov	r17, r16
					break;
			}
			
			if(button_down(BUTTON_UP)){
				if(curr_selecteed > 0){
					menu[curr_selecteed].selected = 0; 
     aba:	a0 e1       	ldi	r26, 0x10	; 16
     abc:	1a 9f       	mul	r17, r26
     abe:	f0 01       	movw	r30, r0
     ac0:	11 24       	eor	r1, r1
     ac2:	ed 5f       	subi	r30, 0xFD	; 253
     ac4:	fe 4f       	sbci	r31, 0xFE	; 254
     ac6:	10 82       	st	Z, r1
					curr_selecteed--;
					menu[curr_selecteed].selected = 1; 
     ac8:	8f ef       	ldi	r24, 0xFF	; 255
     aca:	81 0f       	add	r24, r17
     acc:	b0 e1       	ldi	r27, 0x10	; 16
     ace:	8b 9f       	mul	r24, r27
     ad0:	f0 01       	movw	r30, r0
     ad2:	11 24       	eor	r1, r1
     ad4:	ed 5f       	subi	r30, 0xFD	; 253
     ad6:	fe 4f       	sbci	r31, 0xFE	; 254
     ad8:	81 e0       	ldi	r24, 0x01	; 1
     ada:	80 83       	st	Z, r24
					stateSet(STATE_MENU_SCREEN_UPDATE);
     adc:	85 e0       	ldi	r24, 0x05	; 5
     ade:	0e 94 78 09 	call	0x12f0	; 0x12f0 <stateSet>
     ae2:	38 c0       	rjmp	.+112    	; 0xb54 <main+0x12c>
				}
			}else if (button_down(BUTTON_DOWN)){
     ae4:	81 e0       	ldi	r24, 0x01	; 1
     ae6:	0e 94 3c 02 	call	0x478	; 0x478 <button_down>
     aea:	88 23       	and	r24, r24
     aec:	c9 f0       	breq	.+50     	; 0xb20 <main+0xf8>
				if(curr_selecteed < 3){
     aee:	13 30       	cpi	r17, 0x03	; 3
     af0:	88 f5       	brcc	.+98     	; 0xb54 <main+0x12c>
     af2:	01 c0       	rjmp	.+2      	; 0xaf6 <main+0xce>
					menu[curr_selecteed].selected = 0; 
					curr_selecteed--;
					menu[curr_selecteed].selected = 1; 
					stateSet(STATE_MENU_SCREEN_UPDATE);
				}
			}else if (button_down(BUTTON_DOWN)){
     af4:	10 e0       	ldi	r17, 0x00	; 0
				if(curr_selecteed < 3){
					menu[curr_selecteed].selected = 0;
     af6:	20 e1       	ldi	r18, 0x10	; 16
     af8:	12 9f       	mul	r17, r18
     afa:	f0 01       	movw	r30, r0
     afc:	11 24       	eor	r1, r1
     afe:	ed 5f       	subi	r30, 0xFD	; 253
     b00:	fe 4f       	sbci	r31, 0xFE	; 254
     b02:	10 82       	st	Z, r1
					curr_selecteed++;
					menu[curr_selecteed].selected = 1;
     b04:	81 e0       	ldi	r24, 0x01	; 1
     b06:	81 0f       	add	r24, r17
     b08:	90 e1       	ldi	r25, 0x10	; 16
     b0a:	89 9f       	mul	r24, r25
     b0c:	f0 01       	movw	r30, r0
     b0e:	11 24       	eor	r1, r1
     b10:	ed 5f       	subi	r30, 0xFD	; 253
     b12:	fe 4f       	sbci	r31, 0xFE	; 254
     b14:	81 e0       	ldi	r24, 0x01	; 1
     b16:	80 83       	st	Z, r24
					stateSet(STATE_MENU_SCREEN_UPDATE);
     b18:	85 e0       	ldi	r24, 0x05	; 5
     b1a:	0e 94 78 09 	call	0x12f0	; 0x12f0 <stateSet>
     b1e:	1a c0       	rjmp	.+52     	; 0xb54 <main+0x12c>
				}
			}else if (button_down(BUTTON_ENTER)){
     b20:	82 e0       	ldi	r24, 0x02	; 2
     b22:	0e 94 3c 02 	call	0x478	; 0x478 <button_down>
     b26:	88 23       	and	r24, r24
     b28:	a9 f0       	breq	.+42     	; 0xb54 <main+0x12c>
				menu[curr_selecteed].onSelected(&menu[curr_selecteed]);
     b2a:	a0 e1       	ldi	r26, 0x10	; 16
     b2c:	1a 9f       	mul	r17, r26
     b2e:	c0 01       	movw	r24, r0
     b30:	11 24       	eor	r1, r1
     b32:	8d 5f       	subi	r24, 0xFD	; 253
     b34:	9e 4f       	sbci	r25, 0xFE	; 254
     b36:	dc 01       	movw	r26, r24
     b38:	1e 96       	adiw	r26, 0x0e	; 14
     b3a:	ed 91       	ld	r30, X+
     b3c:	fc 91       	ld	r31, X
     b3e:	1f 97       	sbiw	r26, 0x0f	; 15
     b40:	09 95       	icall
     b42:	08 c0       	rjmp	.+16     	; 0xb54 <main+0x12c>
			}
				
		}else{
			if (button_down(BUTTON_ENTER))
     b44:	82 e0       	ldi	r24, 0x02	; 2
     b46:	0e 94 3c 02 	call	0x478	; 0x478 <button_down>
     b4a:	88 23       	and	r24, r24
     b4c:	19 f0       	breq	.+6      	; 0xb54 <main+0x12c>
			{
				stateSet(STATE_MENU_SCREEN_UPDATE);
     b4e:	85 e0       	ldi	r24, 0x05	; 5
     b50:	0e 94 78 09 	call	0x12f0	; 0x12f0 <stateSet>
			}
		}
		
		buttons_update();
     b54:	0e 94 48 02 	call	0x490	; 0x490 <buttons_update>
    }
     b58:	7a cf       	rjmp	.-268    	; 0xa4e <main+0x26>
				stateSet(STATE_MENU_IDLE);
			break; 
		}
		
	
		if(stateGet() == STATE_MENU_IDLE){
     b5a:	0e 94 75 09 	call	0x12ea	; 0x12ea <stateGet>
     b5e:	86 30       	cpi	r24, 0x06	; 6
     b60:	89 f7       	brne	.-30     	; 0xb44 <main+0x11c>
     b62:	8f cf       	rjmp	.-226    	; 0xa82 <main+0x5a>
			for(curr_selecteed = 0; curr_selecteed < 4; curr_selecteed++){
				if(menu[curr_selecteed].selected)
					break;
			}
			
			if(button_down(BUTTON_UP)){
     b64:	80 e0       	ldi	r24, 0x00	; 0
     b66:	0e 94 3c 02 	call	0x478	; 0x478 <button_down>
     b6a:	81 11       	cpse	r24, r1
     b6c:	f3 cf       	rjmp	.-26     	; 0xb54 <main+0x12c>
     b6e:	07 c0       	rjmp	.+14     	; 0xb7e <main+0x156>
     b70:	80 e0       	ldi	r24, 0x00	; 0
     b72:	0e 94 3c 02 	call	0x478	; 0x478 <button_down>
     b76:	81 11       	cpse	r24, r1
     b78:	9f cf       	rjmp	.-194    	; 0xab8 <main+0x90>
		}
		
	
		if(stateGet() == STATE_MENU_IDLE){
			uint8_t curr_selecteed = 0;
			for(curr_selecteed = 0; curr_selecteed < 4; curr_selecteed++){
     b7a:	10 2f       	mov	r17, r16
     b7c:	b3 cf       	rjmp	.-154    	; 0xae4 <main+0xbc>
					menu[curr_selecteed].selected = 0; 
					curr_selecteed--;
					menu[curr_selecteed].selected = 1; 
					stateSet(STATE_MENU_SCREEN_UPDATE);
				}
			}else if (button_down(BUTTON_DOWN)){
     b7e:	81 e0       	ldi	r24, 0x01	; 1
     b80:	0e 94 3c 02 	call	0x478	; 0x478 <button_down>
     b84:	81 11       	cpse	r24, r1
     b86:	b6 cf       	rjmp	.-148    	; 0xaf4 <main+0xcc>
     b88:	10 e0       	ldi	r17, 0x00	; 0
     b8a:	ca cf       	rjmp	.-108    	; 0xb20 <main+0xf8>

00000b8c <__vector_2>:
	sprintf(buffer , "max:%05.1lf m/s" , data.maxSpeed);
	lcd_puts(buffer);
	lcd_display();
}

ISR(INT1_vect){
     b8c:	1f 92       	push	r1
     b8e:	0f 92       	push	r0
     b90:	0f b6       	in	r0, 0x3f	; 63
     b92:	0f 92       	push	r0
     b94:	11 24       	eor	r1, r1
     b96:	2f 93       	push	r18
     b98:	3f 93       	push	r19
     b9a:	4f 93       	push	r20
     b9c:	5f 93       	push	r21
     b9e:	6f 93       	push	r22
     ba0:	7f 93       	push	r23
     ba2:	8f 93       	push	r24
     ba4:	9f 93       	push	r25
     ba6:	af 93       	push	r26
     ba8:	bf 93       	push	r27
     baa:	ef 93       	push	r30
     bac:	ff 93       	push	r31
	if(stateGet() == STATE_IDLE){
     bae:	0e 94 75 09 	call	0x12ea	; 0x12ea <stateGet>
     bb2:	81 11       	cpse	r24, r1
     bb4:	0e c0       	rjmp	.+28     	; 0xbd2 <__vector_2+0x46>
		TCNT0=0x00;
     bb6:	16 bc       	out	0x26, r1	; 38
		TCCR0B=(1<<CS00);
     bb8:	81 e0       	ldi	r24, 0x01	; 1
     bba:	85 bd       	out	0x25, r24	; 37
		data.timeCounter = 0;
     bbc:	10 92 a3 05 	sts	0x05A3, r1	; 0x8005a3 <data>
     bc0:	10 92 a4 05 	sts	0x05A4, r1	; 0x8005a4 <data+0x1>
     bc4:	10 92 a5 05 	sts	0x05A5, r1	; 0x8005a5 <data+0x2>
     bc8:	10 92 a6 05 	sts	0x05A6, r1	; 0x8005a6 <data+0x3>
		stateSet(STATE_PROCESSING);
     bcc:	82 e0       	ldi	r24, 0x02	; 2
     bce:	0e 94 78 09 	call	0x12f0	; 0x12f0 <stateSet>
	}
}
     bd2:	ff 91       	pop	r31
     bd4:	ef 91       	pop	r30
     bd6:	bf 91       	pop	r27
     bd8:	af 91       	pop	r26
     bda:	9f 91       	pop	r25
     bdc:	8f 91       	pop	r24
     bde:	7f 91       	pop	r23
     be0:	6f 91       	pop	r22
     be2:	5f 91       	pop	r21
     be4:	4f 91       	pop	r20
     be6:	3f 91       	pop	r19
     be8:	2f 91       	pop	r18
     bea:	0f 90       	pop	r0
     bec:	0f be       	out	0x3f, r0	; 63
     bee:	0f 90       	pop	r0
     bf0:	1f 90       	pop	r1
     bf2:	18 95       	reti

00000bf4 <__vector_1>:

ISR(INT0_vect){
     bf4:	1f 92       	push	r1
     bf6:	0f 92       	push	r0
     bf8:	0f b6       	in	r0, 0x3f	; 63
     bfa:	0f 92       	push	r0
     bfc:	11 24       	eor	r1, r1
     bfe:	2f 93       	push	r18
     c00:	3f 93       	push	r19
     c02:	4f 93       	push	r20
     c04:	5f 93       	push	r21
     c06:	6f 93       	push	r22
     c08:	7f 93       	push	r23
     c0a:	8f 93       	push	r24
     c0c:	9f 93       	push	r25
     c0e:	af 93       	push	r26
     c10:	bf 93       	push	r27
     c12:	cf 93       	push	r28
     c14:	df 93       	push	r29
     c16:	ef 93       	push	r30
     c18:	ff 93       	push	r31
	TCCR0B=(0<<CS00);
     c1a:	15 bc       	out	0x25, r1	; 37
	data.timeCounter += TCNT0 * (double)TIMER_PERIOD;
     c1c:	66 b5       	in	r22, 0x26	; 38
     c1e:	c3 ea       	ldi	r28, 0xA3	; 163
     c20:	d5 e0       	ldi	r29, 0x05	; 5
     c22:	70 e0       	ldi	r23, 0x00	; 0
     c24:	80 e0       	ldi	r24, 0x00	; 0
     c26:	90 e0       	ldi	r25, 0x00	; 0
     c28:	0e 94 4f 0e 	call	0x1c9e	; 0x1c9e <__floatsisf>
     c2c:	2f e6       	ldi	r18, 0x6F	; 111
     c2e:	32 e1       	ldi	r19, 0x12	; 18
     c30:	43 e8       	ldi	r20, 0x83	; 131
     c32:	5c e3       	ldi	r21, 0x3C	; 60
     c34:	0e 94 04 0f 	call	0x1e08	; 0x1e08 <__mulsf3>
     c38:	28 81       	ld	r18, Y
     c3a:	39 81       	ldd	r19, Y+1	; 0x01
     c3c:	4a 81       	ldd	r20, Y+2	; 0x02
     c3e:	5b 81       	ldd	r21, Y+3	; 0x03
     c40:	0e 94 6a 0d 	call	0x1ad4	; 0x1ad4 <__addsf3>
     c44:	68 83       	st	Y, r22
     c46:	79 83       	std	Y+1, r23	; 0x01
     c48:	8a 83       	std	Y+2, r24	; 0x02
     c4a:	9b 83       	std	Y+3, r25	; 0x03
	if(stateGet() == STATE_PROCESSING){
     c4c:	0e 94 75 09 	call	0x12ea	; 0x12ea <stateGet>
     c50:	82 30       	cpi	r24, 0x02	; 2
     c52:	19 f4       	brne	.+6      	; 0xc5a <__vector_1+0x66>
		stateSet(STATE_MAIN_SCREEN_UPDATE);
     c54:	83 e0       	ldi	r24, 0x03	; 3
     c56:	0e 94 78 09 	call	0x12f0	; 0x12f0 <stateSet>
	}
}
     c5a:	ff 91       	pop	r31
     c5c:	ef 91       	pop	r30
     c5e:	df 91       	pop	r29
     c60:	cf 91       	pop	r28
     c62:	bf 91       	pop	r27
     c64:	af 91       	pop	r26
     c66:	9f 91       	pop	r25
     c68:	8f 91       	pop	r24
     c6a:	7f 91       	pop	r23
     c6c:	6f 91       	pop	r22
     c6e:	5f 91       	pop	r21
     c70:	4f 91       	pop	r20
     c72:	3f 91       	pop	r19
     c74:	2f 91       	pop	r18
     c76:	0f 90       	pop	r0
     c78:	0f be       	out	0x3f, r0	; 63
     c7a:	0f 90       	pop	r0
     c7c:	1f 90       	pop	r1
     c7e:	18 95       	reti

00000c80 <__vector_16>:

ISR(TIMER0_OVF_vect){
     c80:	1f 92       	push	r1
     c82:	0f 92       	push	r0
     c84:	0f b6       	in	r0, 0x3f	; 63
     c86:	0f 92       	push	r0
     c88:	11 24       	eor	r1, r1
     c8a:	2f 93       	push	r18
     c8c:	3f 93       	push	r19
     c8e:	4f 93       	push	r20
     c90:	5f 93       	push	r21
     c92:	6f 93       	push	r22
     c94:	7f 93       	push	r23
     c96:	8f 93       	push	r24
     c98:	9f 93       	push	r25
     c9a:	af 93       	push	r26
     c9c:	bf 93       	push	r27
     c9e:	cf 93       	push	r28
     ca0:	df 93       	push	r29
     ca2:	ef 93       	push	r30
     ca4:	ff 93       	push	r31
	data.timeCounter += (double)TIMER_PERIOD;
     ca6:	c3 ea       	ldi	r28, 0xA3	; 163
     ca8:	d5 e0       	ldi	r29, 0x05	; 5
     caa:	2f e6       	ldi	r18, 0x6F	; 111
     cac:	32 e1       	ldi	r19, 0x12	; 18
     cae:	43 e8       	ldi	r20, 0x83	; 131
     cb0:	5c e3       	ldi	r21, 0x3C	; 60
     cb2:	68 81       	ld	r22, Y
     cb4:	79 81       	ldd	r23, Y+1	; 0x01
     cb6:	8a 81       	ldd	r24, Y+2	; 0x02
     cb8:	9b 81       	ldd	r25, Y+3	; 0x03
     cba:	0e 94 6a 0d 	call	0x1ad4	; 0x1ad4 <__addsf3>
     cbe:	68 83       	st	Y, r22
     cc0:	79 83       	std	Y+1, r23	; 0x01
     cc2:	8a 83       	std	Y+2, r24	; 0x02
     cc4:	9b 83       	std	Y+3, r25	; 0x03
	if(data.timeCounter > 80){
     cc6:	20 e0       	ldi	r18, 0x00	; 0
     cc8:	30 e0       	ldi	r19, 0x00	; 0
     cca:	40 ea       	ldi	r20, 0xA0	; 160
     ccc:	52 e4       	ldi	r21, 0x42	; 66
     cce:	0e 94 ff 0e 	call	0x1dfe	; 0x1dfe <__gesf2>
     cd2:	18 16       	cp	r1, r24
     cd4:	6c f4       	brge	.+26     	; 0xcf0 <__vector_16+0x70>
		TCCR0B = (0<<CS00);
     cd6:	15 bc       	out	0x25, r1	; 37
		TCNT0=0x00;
     cd8:	16 bc       	out	0x26, r1	; 38
		data.timeCounter = 0;
     cda:	10 92 a3 05 	sts	0x05A3, r1	; 0x8005a3 <data>
     cde:	10 92 a4 05 	sts	0x05A4, r1	; 0x8005a4 <data+0x1>
     ce2:	10 92 a5 05 	sts	0x05A5, r1	; 0x8005a5 <data+0x2>
     ce6:	10 92 a6 05 	sts	0x05A6, r1	; 0x8005a6 <data+0x3>
		stateSet(STATE_IDLE);
     cea:	80 e0       	ldi	r24, 0x00	; 0
     cec:	0e 94 78 09 	call	0x12f0	; 0x12f0 <stateSet>
	}
     cf0:	ff 91       	pop	r31
     cf2:	ef 91       	pop	r30
     cf4:	df 91       	pop	r29
     cf6:	cf 91       	pop	r28
     cf8:	bf 91       	pop	r27
     cfa:	af 91       	pop	r26
     cfc:	9f 91       	pop	r25
     cfe:	8f 91       	pop	r24
     d00:	7f 91       	pop	r23
     d02:	6f 91       	pop	r22
     d04:	5f 91       	pop	r21
     d06:	4f 91       	pop	r20
     d08:	3f 91       	pop	r19
     d0a:	2f 91       	pop	r18
     d0c:	0f 90       	pop	r0
     d0e:	0f be       	out	0x3f, r0	; 63
     d10:	0f 90       	pop	r0
     d12:	1f 90       	pop	r1
     d14:	18 95       	reti

00000d16 <FloatInput>:
};
struct MenuElement *currentMenuActiveRoot;

void empty(){}

void FloatInput(struct MenuElement *mElement){
     d16:	08 95       	ret

00000d18 <onExit>:


//Exit to previous menuElement
void onExit(struct MenuElement *mElement){
	//*(mElement)->selected = 0;
	mElement->selected = false;
     d18:	fc 01       	movw	r30, r24
     d1a:	10 82       	st	Z, r1
	menu[0].selected = true;
     d1c:	81 e0       	ldi	r24, 0x01	; 1
     d1e:	80 93 03 01 	sts	0x0103, r24	; 0x800103 <menu>
	stateSet(STATE_MAIN_SCREEN_UPDATE);
     d22:	83 e0       	ldi	r24, 0x03	; 3
     d24:	0e 94 78 09 	call	0x12f0	; 0x12f0 <stateSet>
     d28:	08 95       	ret

00000d2a <scrollValue>:
}
/*
	Function for scrolling menu element parameters every
	time selection button pressed.  
*/
void scrollValue(struct MenuElement *mElement){
     d2a:	fc 01       	movw	r30, r24
	*(mElement)->var_selected += 1;
     d2c:	a7 81       	ldd	r26, Z+7	; 0x07
     d2e:	b0 85       	ldd	r27, Z+8	; 0x08
     d30:	8c 91       	ld	r24, X
     d32:	8f 5f       	subi	r24, 0xFF	; 255
     d34:	8c 93       	st	X, r24
	if (*mElement->var_selected >= mElement->vars_count) {*mElement->var_selected = 0;};
     d36:	a7 81       	ldd	r26, Z+7	; 0x07
     d38:	b0 85       	ldd	r27, Z+8	; 0x08
     d3a:	9c 91       	ld	r25, X
     d3c:	81 85       	ldd	r24, Z+9	; 0x09
     d3e:	98 17       	cp	r25, r24
     d40:	08 f0       	brcs	.+2      	; 0xd44 <scrollValue+0x1a>
     d42:	1c 92       	st	X, r1
	stateSet(STATE_MENU_SCREEN_UPDATE);
     d44:	85 e0       	ldi	r24, 0x05	; 5
     d46:	0e 94 78 09 	call	0x12f0	; 0x12f0 <stateSet>
     d4a:	08 95       	ret

00000d4c <i2c_init>:
            break;
        case 64:
            TWSR = 0x3;
            break;
        default:
            TWSR = 0x00;
     d4c:	10 92 b9 00 	sts	0x00B9, r1	; 0x8000b9 <__TEXT_REGION_LENGTH__+0x7e00b9>
            break;
    }
    TWBR = (uint8_t)SET_TWBR;
     d50:	88 e0       	ldi	r24, 0x08	; 8
     d52:	80 93 b8 00 	sts	0x00B8, r24	; 0x8000b8 <__TEXT_REGION_LENGTH__+0x7e00b8>
    // enable
    TWCR = (1 << TWEN);
     d56:	84 e0       	ldi	r24, 0x04	; 4
     d58:	80 93 bc 00 	sts	0x00BC, r24	; 0x8000bc <__TEXT_REGION_LENGTH__+0x7e00bc>
     d5c:	08 95       	ret

00000d5e <i2c_start>:
 
 Return Value: none
 **********************************************/
void i2c_start(uint8_t i2c_addr){
    // i2c start
    TWCR = (1 << TWINT)|(1 << TWSTA)|(1 << TWEN);
     d5e:	94 ea       	ldi	r25, 0xA4	; 164
     d60:	90 93 bc 00 	sts	0x00BC, r25	; 0x8000bc <__TEXT_REGION_LENGTH__+0x7e00bc>
	uint16_t timeout = F_CPU/F_I2C*2.0;
    while((TWCR & (1 << TWINT)) == 0 &&
     d64:	20 e4       	ldi	r18, 0x40	; 64
     d66:	30 e0       	ldi	r19, 0x00	; 0
     d68:	ec eb       	ldi	r30, 0xBC	; 188
     d6a:	f0 e0       	ldi	r31, 0x00	; 0
     d6c:	09 c0       	rjmp	.+18     	; 0xd80 <i2c_start+0x22>
     d6e:	21 50       	subi	r18, 0x01	; 1
     d70:	31 09       	sbc	r19, r1
		timeout !=0){
		timeout--;
		if(timeout == 0){
     d72:	31 f4       	brne	.+12     	; 0xd80 <i2c_start+0x22>
			I2C_ErrorCode |= (1 << I2C_START);
     d74:	80 91 1d 06 	lds	r24, 0x061D	; 0x80061d <I2C_ErrorCode>
     d78:	81 60       	ori	r24, 0x01	; 1
     d7a:	80 93 1d 06 	sts	0x061D, r24	; 0x80061d <I2C_ErrorCode>
			return;
     d7e:	08 95       	ret
 **********************************************/
void i2c_start(uint8_t i2c_addr){
    // i2c start
    TWCR = (1 << TWINT)|(1 << TWSTA)|(1 << TWEN);
	uint16_t timeout = F_CPU/F_I2C*2.0;
    while((TWCR & (1 << TWINT)) == 0 &&
     d80:	90 81       	ld	r25, Z
     d82:	99 23       	and	r25, r25
     d84:	a4 f7       	brge	.-24     	; 0xd6e <i2c_start+0x10>
			I2C_ErrorCode |= (1 << I2C_START);
			return;
		}
	};
    // send adress
    TWDR = i2c_addr;
     d86:	80 93 bb 00 	sts	0x00BB, r24	; 0x8000bb <__TEXT_REGION_LENGTH__+0x7e00bb>
    TWCR = (1 << TWINT)|( 1 << TWEN);
     d8a:	84 e8       	ldi	r24, 0x84	; 132
     d8c:	80 93 bc 00 	sts	0x00BC, r24	; 0x8000bc <__TEXT_REGION_LENGTH__+0x7e00bc>
    timeout = F_CPU/F_I2C*2.0;
    while((TWCR & (1 << TWINT)) == 0 &&
     d90:	80 e4       	ldi	r24, 0x40	; 64
     d92:	90 e0       	ldi	r25, 0x00	; 0
     d94:	ec eb       	ldi	r30, 0xBC	; 188
     d96:	f0 e0       	ldi	r31, 0x00	; 0
     d98:	08 c0       	rjmp	.+16     	; 0xdaa <i2c_start+0x4c>
     d9a:	01 97       	sbiw	r24, 0x01	; 1
		  timeout !=0){
		timeout--;
		if(timeout == 0){
     d9c:	31 f4       	brne	.+12     	; 0xdaa <i2c_start+0x4c>
			I2C_ErrorCode |= (1 << I2C_SENDADRESS);
     d9e:	80 91 1d 06 	lds	r24, 0x061D	; 0x80061d <I2C_ErrorCode>
     da2:	82 60       	ori	r24, 0x02	; 2
     da4:	80 93 1d 06 	sts	0x061D, r24	; 0x80061d <I2C_ErrorCode>
			return;
     da8:	08 95       	ret
	};
    // send adress
    TWDR = i2c_addr;
    TWCR = (1 << TWINT)|( 1 << TWEN);
    timeout = F_CPU/F_I2C*2.0;
    while((TWCR & (1 << TWINT)) == 0 &&
     daa:	20 81       	ld	r18, Z
     dac:	22 23       	and	r18, r18
     dae:	ac f7       	brge	.-22     	; 0xd9a <i2c_start+0x3c>
     db0:	08 95       	ret

00000db2 <i2c_stop>:
 
 Return Value: none
 **********************************************/
void i2c_stop(void){
    // i2c stop
    TWCR = (1 << TWINT)|(1 << TWSTO)|(1 << TWEN);
     db2:	84 e9       	ldi	r24, 0x94	; 148
     db4:	80 93 bc 00 	sts	0x00BC, r24	; 0x8000bc <__TEXT_REGION_LENGTH__+0x7e00bc>
     db8:	08 95       	ret

00000dba <i2c_byte>:
 - uint8_t byte: Byte to send to reciever
 
 Return Value: none
 **********************************************/
void i2c_byte(uint8_t byte){
    TWDR = byte;
     dba:	80 93 bb 00 	sts	0x00BB, r24	; 0x8000bb <__TEXT_REGION_LENGTH__+0x7e00bb>
    TWCR = (1 << TWINT)|( 1 << TWEN);
     dbe:	84 e8       	ldi	r24, 0x84	; 132
     dc0:	80 93 bc 00 	sts	0x00BC, r24	; 0x8000bc <__TEXT_REGION_LENGTH__+0x7e00bc>
    uint16_t timeout = F_CPU/F_I2C*2.0;
    while((TWCR & (1 << TWINT)) == 0 &&
     dc4:	80 e4       	ldi	r24, 0x40	; 64
     dc6:	90 e0       	ldi	r25, 0x00	; 0
     dc8:	ec eb       	ldi	r30, 0xBC	; 188
     dca:	f0 e0       	ldi	r31, 0x00	; 0
     dcc:	08 c0       	rjmp	.+16     	; 0xdde <i2c_byte+0x24>
     dce:	01 97       	sbiw	r24, 0x01	; 1
		  timeout !=0){
		timeout--;
		if(timeout == 0){
     dd0:	31 f4       	brne	.+12     	; 0xdde <i2c_byte+0x24>
			I2C_ErrorCode |= (1 << I2C_BYTE);
     dd2:	80 91 1d 06 	lds	r24, 0x061D	; 0x80061d <I2C_ErrorCode>
     dd6:	84 60       	ori	r24, 0x04	; 4
     dd8:	80 93 1d 06 	sts	0x061D, r24	; 0x80061d <I2C_ErrorCode>
			return;
     ddc:	08 95       	ret
 **********************************************/
void i2c_byte(uint8_t byte){
    TWDR = byte;
    TWCR = (1 << TWINT)|( 1 << TWEN);
    uint16_t timeout = F_CPU/F_I2C*2.0;
    while((TWCR & (1 << TWINT)) == 0 &&
     dde:	20 81       	ld	r18, Z
     de0:	22 23       	and	r18, r18
     de2:	ac f7       	brge	.-22     	; 0xdce <i2c_byte+0x14>
     de4:	08 95       	ret

00000de6 <lcd_command>:
            } else {
                lcd_drawPixel(x+i, y+j, !color);
            }
        }
    }
}
     de6:	ef 92       	push	r14
     de8:	ff 92       	push	r15
     dea:	0f 93       	push	r16
     dec:	1f 93       	push	r17
     dee:	cf 93       	push	r28
     df0:	df 93       	push	r29
     df2:	7c 01       	movw	r14, r24
     df4:	16 2f       	mov	r17, r22
     df6:	88 e7       	ldi	r24, 0x78	; 120
     df8:	0e 94 af 06 	call	0xd5e	; 0xd5e <i2c_start>
     dfc:	80 e0       	ldi	r24, 0x00	; 0
     dfe:	0e 94 dd 06 	call	0xdba	; 0xdba <i2c_byte>
     e02:	11 23       	and	r17, r17
     e04:	71 f0       	breq	.+28     	; 0xe22 <lcd_command+0x3c>
     e06:	e7 01       	movw	r28, r14
     e08:	11 50       	subi	r17, 0x01	; 1
     e0a:	01 2f       	mov	r16, r17
     e0c:	10 e0       	ldi	r17, 0x00	; 0
     e0e:	0f 5f       	subi	r16, 0xFF	; 255
     e10:	1f 4f       	sbci	r17, 0xFF	; 255
     e12:	0e 0d       	add	r16, r14
     e14:	1f 1d       	adc	r17, r15
     e16:	89 91       	ld	r24, Y+
     e18:	0e 94 dd 06 	call	0xdba	; 0xdba <i2c_byte>
     e1c:	c0 17       	cp	r28, r16
     e1e:	d1 07       	cpc	r29, r17
     e20:	d1 f7       	brne	.-12     	; 0xe16 <lcd_command+0x30>
     e22:	0e 94 d9 06 	call	0xdb2	; 0xdb2 <i2c_stop>
     e26:	df 91       	pop	r29
     e28:	cf 91       	pop	r28
     e2a:	1f 91       	pop	r17
     e2c:	0f 91       	pop	r16
     e2e:	ff 90       	pop	r15
     e30:	ef 90       	pop	r14
     e32:	08 95       	ret

00000e34 <lcd_data>:
     e34:	ef 92       	push	r14
     e36:	ff 92       	push	r15
     e38:	0f 93       	push	r16
     e3a:	1f 93       	push	r17
     e3c:	cf 93       	push	r28
     e3e:	df 93       	push	r29
     e40:	7c 01       	movw	r14, r24
     e42:	8b 01       	movw	r16, r22
     e44:	88 e7       	ldi	r24, 0x78	; 120
     e46:	0e 94 af 06 	call	0xd5e	; 0xd5e <i2c_start>
     e4a:	80 e4       	ldi	r24, 0x40	; 64
     e4c:	0e 94 dd 06 	call	0xdba	; 0xdba <i2c_byte>
     e50:	01 15       	cp	r16, r1
     e52:	11 05       	cpc	r17, r1
     e54:	49 f0       	breq	.+18     	; 0xe68 <lcd_data+0x34>
     e56:	e7 01       	movw	r28, r14
     e58:	0e 0d       	add	r16, r14
     e5a:	1f 1d       	adc	r17, r15
     e5c:	89 91       	ld	r24, Y+
     e5e:	0e 94 dd 06 	call	0xdba	; 0xdba <i2c_byte>
     e62:	c0 17       	cp	r28, r16
     e64:	d1 07       	cpc	r29, r17
     e66:	d1 f7       	brne	.-12     	; 0xe5c <lcd_data+0x28>
     e68:	0e 94 d9 06 	call	0xdb2	; 0xdb2 <i2c_stop>
     e6c:	df 91       	pop	r29
     e6e:	cf 91       	pop	r28
     e70:	1f 91       	pop	r17
     e72:	0f 91       	pop	r16
     e74:	ff 90       	pop	r15
     e76:	ef 90       	pop	r14
     e78:	08 95       	ret

00000e7a <lcd_goto_xpix_y>:
     e7a:	cf 93       	push	r28
     e7c:	df 93       	push	r29
     e7e:	00 d0       	rcall	.+0      	; 0xe80 <lcd_goto_xpix_y+0x6>
     e80:	00 d0       	rcall	.+0      	; 0xe82 <lcd_goto_xpix_y+0x8>
     e82:	1f 92       	push	r1
     e84:	cd b7       	in	r28, 0x3d	; 61
     e86:	de b7       	in	r29, 0x3e	; 62
     e88:	81 38       	cpi	r24, 0x81	; 129
     e8a:	18 f5       	brcc	.+70     	; 0xed2 <lcd_goto_xpix_y+0x58>
     e8c:	68 30       	cpi	r22, 0x08	; 8
     e8e:	08 f5       	brcc	.+66     	; 0xed2 <lcd_goto_xpix_y+0x58>
     e90:	ef e9       	ldi	r30, 0x9F	; 159
     e92:	f5 e0       	ldi	r31, 0x05	; 5
     e94:	80 83       	st	Z, r24
     e96:	61 83       	std	Z+1, r22	; 0x01
     e98:	60 55       	subi	r22, 0x50	; 80
     e9a:	69 83       	std	Y+1, r22	; 0x01
     e9c:	91 e2       	ldi	r25, 0x21	; 33
     e9e:	9a 83       	std	Y+2, r25	; 0x02
     ea0:	92 e0       	ldi	r25, 0x02	; 2
     ea2:	98 0f       	add	r25, r24
     ea4:	9f 70       	andi	r25, 0x0F	; 15
     ea6:	9b 83       	std	Y+3, r25	; 0x03
     ea8:	90 e0       	ldi	r25, 0x00	; 0
     eaa:	02 96       	adiw	r24, 0x02	; 2
     eac:	80 7f       	andi	r24, 0xF0	; 240
     eae:	99 27       	eor	r25, r25
     eb0:	95 95       	asr	r25
     eb2:	87 95       	ror	r24
     eb4:	95 95       	asr	r25
     eb6:	87 95       	ror	r24
     eb8:	95 95       	asr	r25
     eba:	87 95       	ror	r24
     ebc:	95 95       	asr	r25
     ebe:	87 95       	ror	r24
     ec0:	80 5f       	subi	r24, 0xF0	; 240
     ec2:	8c 83       	std	Y+4, r24	; 0x04
     ec4:	8f e7       	ldi	r24, 0x7F	; 127
     ec6:	8d 83       	std	Y+5, r24	; 0x05
     ec8:	65 e0       	ldi	r22, 0x05	; 5
     eca:	ce 01       	movw	r24, r28
     ecc:	01 96       	adiw	r24, 0x01	; 1
     ece:	0e 94 f3 06 	call	0xde6	; 0xde6 <lcd_command>
     ed2:	0f 90       	pop	r0
     ed4:	0f 90       	pop	r0
     ed6:	0f 90       	pop	r0
     ed8:	0f 90       	pop	r0
     eda:	0f 90       	pop	r0
     edc:	df 91       	pop	r29
     ede:	cf 91       	pop	r28
     ee0:	08 95       	ret

00000ee2 <lcd_gotoxy>:
     ee2:	98 2f       	mov	r25, r24
     ee4:	99 0f       	add	r25, r25
     ee6:	89 0f       	add	r24, r25
     ee8:	88 0f       	add	r24, r24
     eea:	0e 94 3d 07 	call	0xe7a	; 0xe7a <lcd_goto_xpix_y>
     eee:	08 95       	ret

00000ef0 <lcd_home>:
     ef0:	60 e0       	ldi	r22, 0x00	; 0
     ef2:	80 e0       	ldi	r24, 0x00	; 0
     ef4:	0e 94 71 07 	call	0xee2	; 0xee2 <lcd_gotoxy>
     ef8:	08 95       	ret

00000efa <lcd_clrscr>:
     efa:	0f 93       	push	r16
     efc:	1f 93       	push	r17
     efe:	cf 93       	push	r28
     f00:	df 93       	push	r29
     f02:	0f e9       	ldi	r16, 0x9F	; 159
     f04:	11 e0       	ldi	r17, 0x01	; 1
     f06:	c0 e0       	ldi	r28, 0x00	; 0
     f08:	d0 e8       	ldi	r29, 0x80	; 128
     f0a:	f8 01       	movw	r30, r16
     f0c:	8d 2f       	mov	r24, r29
     f0e:	11 92       	st	Z+, r1
     f10:	8a 95       	dec	r24
     f12:	e9 f7       	brne	.-6      	; 0xf0e <lcd_clrscr+0x14>
     f14:	6c 2f       	mov	r22, r28
     f16:	80 e0       	ldi	r24, 0x00	; 0
     f18:	0e 94 71 07 	call	0xee2	; 0xee2 <lcd_gotoxy>
     f1c:	60 e8       	ldi	r22, 0x80	; 128
     f1e:	70 e0       	ldi	r23, 0x00	; 0
     f20:	c8 01       	movw	r24, r16
     f22:	0e 94 1a 07 	call	0xe34	; 0xe34 <lcd_data>
     f26:	cf 5f       	subi	r28, 0xFF	; 255
     f28:	00 58       	subi	r16, 0x80	; 128
     f2a:	1f 4f       	sbci	r17, 0xFF	; 255
     f2c:	c8 30       	cpi	r28, 0x08	; 8
     f2e:	69 f7       	brne	.-38     	; 0xf0a <lcd_clrscr+0x10>
     f30:	0e 94 78 07 	call	0xef0	; 0xef0 <lcd_home>
     f34:	df 91       	pop	r29
     f36:	cf 91       	pop	r28
     f38:	1f 91       	pop	r17
     f3a:	0f 91       	pop	r16
     f3c:	08 95       	ret

00000f3e <lcd_init>:
     f3e:	1f 93       	push	r17
     f40:	cf 93       	push	r28
     f42:	df 93       	push	r29
     f44:	cd b7       	in	r28, 0x3d	; 61
     f46:	de b7       	in	r29, 0x3e	; 62
     f48:	6c 97       	sbiw	r28, 0x1c	; 28
     f4a:	0f b6       	in	r0, 0x3f	; 63
     f4c:	f8 94       	cli
     f4e:	de bf       	out	0x3e, r29	; 62
     f50:	0f be       	out	0x3f, r0	; 63
     f52:	cd bf       	out	0x3d, r28	; 61
     f54:	18 2f       	mov	r17, r24
     f56:	0e 94 a6 06 	call	0xd4c	; 0xd4c <i2c_init>
     f5a:	ef e1       	ldi	r30, 0x1F	; 31
     f5c:	f4 e0       	ldi	r31, 0x04	; 4
     f5e:	de 01       	movw	r26, r28
     f60:	11 96       	adiw	r26, 0x01	; 1
     f62:	9e 01       	movw	r18, r28
     f64:	24 5e       	subi	r18, 0xE4	; 228
     f66:	3f 4f       	sbci	r19, 0xFF	; 255
     f68:	84 91       	lpm	r24, Z
     f6a:	8d 93       	st	X+, r24
     f6c:	31 96       	adiw	r30, 0x01	; 1
     f6e:	a2 17       	cp	r26, r18
     f70:	b3 07       	cpc	r27, r19
     f72:	d1 f7       	brne	.-12     	; 0xf68 <lcd_init+0x2a>
     f74:	1c 8f       	std	Y+28, r17	; 0x1c
     f76:	6c e1       	ldi	r22, 0x1C	; 28
     f78:	ce 01       	movw	r24, r28
     f7a:	01 96       	adiw	r24, 0x01	; 1
     f7c:	0e 94 f3 06 	call	0xde6	; 0xde6 <lcd_command>
     f80:	0e 94 7d 07 	call	0xefa	; 0xefa <lcd_clrscr>
     f84:	6c 96       	adiw	r28, 0x1c	; 28
     f86:	0f b6       	in	r0, 0x3f	; 63
     f88:	f8 94       	cli
     f8a:	de bf       	out	0x3e, r29	; 62
     f8c:	0f be       	out	0x3f, r0	; 63
     f8e:	cd bf       	out	0x3d, r28	; 61
     f90:	df 91       	pop	r29
     f92:	cf 91       	pop	r28
     f94:	1f 91       	pop	r17
     f96:	08 95       	ret

00000f98 <lcd_putc>:
     f98:	2f 92       	push	r2
     f9a:	3f 92       	push	r3
     f9c:	4f 92       	push	r4
     f9e:	5f 92       	push	r5
     fa0:	6f 92       	push	r6
     fa2:	7f 92       	push	r7
     fa4:	8f 92       	push	r8
     fa6:	9f 92       	push	r9
     fa8:	bf 92       	push	r11
     faa:	cf 92       	push	r12
     fac:	df 92       	push	r13
     fae:	ef 92       	push	r14
     fb0:	ff 92       	push	r15
     fb2:	0f 93       	push	r16
     fb4:	1f 93       	push	r17
     fb6:	cf 93       	push	r28
     fb8:	df 93       	push	r29
     fba:	cd b7       	in	r28, 0x3d	; 61
     fbc:	de b7       	in	r29, 0x3e	; 62
     fbe:	2c 97       	sbiw	r28, 0x0c	; 12
     fc0:	0f b6       	in	r0, 0x3f	; 63
     fc2:	f8 94       	cli
     fc4:	de bf       	out	0x3e, r29	; 62
     fc6:	0f be       	out	0x3f, r0	; 63
     fc8:	cd bf       	out	0x3d, r28	; 61
     fca:	89 30       	cpi	r24, 0x09	; 9
     fcc:	01 f1       	breq	.+64     	; 0x100e <lcd_putc+0x76>
     fce:	18 f4       	brcc	.+6      	; 0xfd6 <lcd_putc+0x3e>
     fd0:	88 30       	cpi	r24, 0x08	; 8
     fd2:	39 f0       	breq	.+14     	; 0xfe2 <lcd_putc+0x4a>
     fd4:	52 c0       	rjmp	.+164    	; 0x107a <lcd_putc+0xe2>
     fd6:	8a 30       	cpi	r24, 0x0A	; 10
     fd8:	e9 f1       	breq	.+122    	; 0x1054 <lcd_putc+0xbc>
     fda:	8d 30       	cpi	r24, 0x0D	; 13
     fdc:	09 f4       	brne	.+2      	; 0xfe0 <lcd_putc+0x48>
     fde:	47 c0       	rjmp	.+142    	; 0x106e <lcd_putc+0xd6>
     fe0:	4c c0       	rjmp	.+152    	; 0x107a <lcd_putc+0xe2>
     fe2:	0f e9       	ldi	r16, 0x9F	; 159
     fe4:	15 e0       	ldi	r17, 0x05	; 5
     fe6:	f8 01       	movw	r30, r16
     fe8:	80 81       	ld	r24, Z
     fea:	90 91 4d 01 	lds	r25, 0x014D	; 0x80014d <charMode>
     fee:	61 81       	ldd	r22, Z+1	; 0x01
     ff0:	89 1b       	sub	r24, r25
     ff2:	0e 94 71 07 	call	0xee2	; 0xee2 <lcd_gotoxy>
     ff6:	80 e2       	ldi	r24, 0x20	; 32
     ff8:	0e 94 cc 07 	call	0xf98	; 0xf98 <lcd_putc>
     ffc:	f8 01       	movw	r30, r16
     ffe:	80 81       	ld	r24, Z
    1000:	90 91 4d 01 	lds	r25, 0x014D	; 0x80014d <charMode>
    1004:	61 81       	ldd	r22, Z+1	; 0x01
    1006:	89 1b       	sub	r24, r25
    1008:	0e 94 71 07 	call	0xee2	; 0xee2 <lcd_gotoxy>
    100c:	2c c1       	rjmp	.+600    	; 0x1266 <lcd_putc+0x2ce>
    100e:	80 91 9f 05 	lds	r24, 0x059F	; 0x80059f <cursorPosition>
    1012:	90 91 4d 01 	lds	r25, 0x014D	; 0x80014d <charMode>
    1016:	29 2f       	mov	r18, r25
    1018:	30 e0       	ldi	r19, 0x00	; 0
    101a:	22 0f       	add	r18, r18
    101c:	33 1f       	adc	r19, r19
    101e:	22 0f       	add	r18, r18
    1020:	33 1f       	adc	r19, r19
    1022:	b9 01       	movw	r22, r18
    1024:	68 0f       	add	r22, r24
    1026:	71 1d       	adc	r23, r1
    1028:	45 e1       	ldi	r20, 0x15	; 21
    102a:	50 e0       	ldi	r21, 0x00	; 0
    102c:	1a 01       	movw	r2, r20
    102e:	22 1a       	sub	r2, r18
    1030:	33 0a       	sbc	r3, r19
    1032:	62 15       	cp	r22, r2
    1034:	73 05       	cpc	r23, r3
    1036:	40 f4       	brcc	.+16     	; 0x1048 <lcd_putc+0xb0>
    1038:	99 0f       	add	r25, r25
    103a:	99 0f       	add	r25, r25
    103c:	60 91 a0 05 	lds	r22, 0x05A0	; 0x8005a0 <cursorPosition+0x1>
    1040:	89 0f       	add	r24, r25
    1042:	0e 94 71 07 	call	0xee2	; 0xee2 <lcd_gotoxy>
    1046:	0f c1       	rjmp	.+542    	; 0x1266 <lcd_putc+0x2ce>
    1048:	60 91 a0 05 	lds	r22, 0x05A0	; 0x8005a0 <cursorPosition+0x1>
    104c:	85 e1       	ldi	r24, 0x15	; 21
    104e:	0e 94 71 07 	call	0xee2	; 0xee2 <lcd_gotoxy>
    1052:	09 c1       	rjmp	.+530    	; 0x1266 <lcd_putc+0x2ce>
    1054:	80 91 a0 05 	lds	r24, 0x05A0	; 0x8005a0 <cursorPosition+0x1>
    1058:	87 30       	cpi	r24, 0x07	; 7
    105a:	08 f0       	brcs	.+2      	; 0x105e <lcd_putc+0xc6>
    105c:	04 c1       	rjmp	.+520    	; 0x1266 <lcd_putc+0x2ce>
    105e:	60 91 4d 01 	lds	r22, 0x014D	; 0x80014d <charMode>
    1062:	68 0f       	add	r22, r24
    1064:	80 91 9f 05 	lds	r24, 0x059F	; 0x80059f <cursorPosition>
    1068:	0e 94 71 07 	call	0xee2	; 0xee2 <lcd_gotoxy>
    106c:	fc c0       	rjmp	.+504    	; 0x1266 <lcd_putc+0x2ce>
    106e:	60 91 a0 05 	lds	r22, 0x05A0	; 0x8005a0 <cursorPosition+0x1>
    1072:	80 e0       	ldi	r24, 0x00	; 0
    1074:	0e 94 71 07 	call	0xee2	; 0xee2 <lcd_gotoxy>
    1078:	f6 c0       	rjmp	.+492    	; 0x1266 <lcd_putc+0x2ce>
    107a:	b0 90 9f 05 	lds	r11, 0x059F	; 0x80059f <cursorPosition>
    107e:	0f 2e       	mov	r0, r31
    1080:	f9 e7       	ldi	r31, 0x79	; 121
    1082:	3f 2e       	mov	r3, r31
    1084:	f0 2d       	mov	r31, r0
    1086:	3b 14       	cp	r3, r11
    1088:	08 f4       	brcc	.+2      	; 0x108c <lcd_putc+0xf4>
    108a:	ed c0       	rjmp	.+474    	; 0x1266 <lcd_putc+0x2ce>
    108c:	80 32       	cpi	r24, 0x20	; 32
    108e:	08 f4       	brcc	.+2      	; 0x1092 <lcd_putc+0xfa>
    1090:	ea c0       	rjmp	.+468    	; 0x1266 <lcd_putc+0x2ce>
    1092:	80 52       	subi	r24, 0x20	; 32
    1094:	4c e9       	ldi	r20, 0x9C	; 156
    1096:	51 e0       	ldi	r21, 0x01	; 1
    1098:	fa 01       	movw	r30, r20
    109a:	94 91       	lpm	r25, Z
    109c:	89 17       	cp	r24, r25
    109e:	68 f1       	brcs	.+90     	; 0x10fa <lcd_putc+0x162>
    10a0:	94 91       	lpm	r25, Z
    10a2:	9f 3f       	cpi	r25, 0xFF	; 255
    10a4:	09 f4       	brne	.+2      	; 0x10a8 <lcd_putc+0x110>
    10a6:	df c0       	rjmp	.+446    	; 0x1266 <lcd_putc+0x2ce>
    10a8:	eb e9       	ldi	r30, 0x9B	; 155
    10aa:	f1 e0       	ldi	r31, 0x01	; 1
    10ac:	24 91       	lpm	r18, Z
    10ae:	90 e0       	ldi	r25, 0x00	; 0
    10b0:	30 e0       	ldi	r19, 0x00	; 0
    10b2:	20 52       	subi	r18, 0x20	; 32
    10b4:	31 09       	sbc	r19, r1
    10b6:	28 17       	cp	r18, r24
    10b8:	39 07       	cpc	r19, r25
    10ba:	69 f0       	breq	.+26     	; 0x10d6 <lcd_putc+0x13e>
    10bc:	60 e0       	ldi	r22, 0x00	; 0
    10be:	10 c0       	rjmp	.+32     	; 0x10e0 <lcd_putc+0x148>
    10c0:	f9 01       	movw	r30, r18
    10c2:	ee 0f       	add	r30, r30
    10c4:	ff 1f       	adc	r31, r31
    10c6:	e5 56       	subi	r30, 0x65	; 101
    10c8:	fe 4f       	sbci	r31, 0xFE	; 254
    10ca:	e4 91       	lpm	r30, Z
    10cc:	f0 e0       	ldi	r31, 0x00	; 0
    10ce:	b0 97       	sbiw	r30, 0x20	; 32
    10d0:	e8 17       	cp	r30, r24
    10d2:	f9 07       	cpc	r31, r25
    10d4:	29 f4       	brne	.+10     	; 0x10e0 <lcd_putc+0x148>
    10d6:	fa 01       	movw	r30, r20
    10d8:	84 91       	lpm	r24, Z
    10da:	8f 3f       	cpi	r24, 0xFF	; 255
    10dc:	71 f4       	brne	.+28     	; 0x10fa <lcd_putc+0x162>
    10de:	c3 c0       	rjmp	.+390    	; 0x1266 <lcd_putc+0x2ce>
    10e0:	6f 5f       	subi	r22, 0xFF	; 255
    10e2:	26 2f       	mov	r18, r22
    10e4:	30 e0       	ldi	r19, 0x00	; 0
    10e6:	a9 01       	movw	r20, r18
    10e8:	44 0f       	add	r20, r20
    10ea:	55 1f       	adc	r21, r21
    10ec:	44 56       	subi	r20, 0x64	; 100
    10ee:	5e 4f       	sbci	r21, 0xFE	; 254
    10f0:	fa 01       	movw	r30, r20
    10f2:	74 91       	lpm	r23, Z
    10f4:	7f 3f       	cpi	r23, 0xFF	; 255
    10f6:	21 f7       	brne	.-56     	; 0x10c0 <lcd_putc+0x128>
    10f8:	b6 c0       	rjmp	.+364    	; 0x1266 <lcd_putc+0x2ce>
    10fa:	90 91 4d 01 	lds	r25, 0x014D	; 0x80014d <charMode>
    10fe:	92 30       	cpi	r25, 0x02	; 2
    1100:	09 f0       	breq	.+2      	; 0x1104 <lcd_putc+0x16c>
    1102:	8b c0       	rjmp	.+278    	; 0x121a <lcd_putc+0x282>
    1104:	4b 2c       	mov	r4, r11
    1106:	51 2c       	mov	r5, r1
    1108:	92 01       	movw	r18, r4
    110a:	24 5f       	subi	r18, 0xF4	; 244
    110c:	3f 4f       	sbci	r19, 0xFF	; 255
    110e:	21 38       	cpi	r18, 0x81	; 129
    1110:	31 05       	cpc	r19, r1
    1112:	08 f0       	brcs	.+2      	; 0x1116 <lcd_putc+0x17e>
    1114:	a8 c0       	rjmp	.+336    	; 0x1266 <lcd_putc+0x2ce>
    1116:	9e 01       	movw	r18, r28
    1118:	2f 5f       	subi	r18, 0xFF	; 255
    111a:	3f 4f       	sbci	r19, 0xFF	; 255
    111c:	79 01       	movw	r14, r18
    111e:	90 e0       	ldi	r25, 0x00	; 0
    1120:	4c 01       	movw	r8, r24
    1122:	88 0c       	add	r8, r8
    1124:	99 1c       	adc	r9, r9
    1126:	88 0d       	add	r24, r8
    1128:	99 1d       	adc	r25, r9
    112a:	88 0f       	add	r24, r24
    112c:	99 1f       	adc	r25, r25
    112e:	fc 01       	movw	r30, r24
    1130:	e1 55       	subi	r30, 0x51	; 81
    1132:	fe 4f       	sbci	r31, 0xFE	; 254
    1134:	4f 01       	movw	r8, r30
    1136:	3e 01       	movw	r6, r28
    1138:	fd e0       	ldi	r31, 0x0D	; 13
    113a:	6f 0e       	add	r6, r31
    113c:	71 1c       	adc	r7, r1
    113e:	69 01       	movw	r12, r18
    1140:	01 e0       	ldi	r16, 0x01	; 1
    1142:	10 e0       	ldi	r17, 0x00	; 0
    1144:	d6 01       	movw	r26, r12
    1146:	11 96       	adiw	r26, 0x01	; 1
    1148:	1c 92       	st	X, r1
    114a:	1e 92       	st	-X, r1
    114c:	f4 01       	movw	r30, r8
    114e:	44 91       	lpm	r20, Z
    1150:	21 e0       	ldi	r18, 0x01	; 1
    1152:	30 e0       	ldi	r19, 0x00	; 0
    1154:	80 e0       	ldi	r24, 0x00	; 0
    1156:	90 e0       	ldi	r25, 0x00	; 0
    1158:	e4 2f       	mov	r30, r20
    115a:	f0 e0       	ldi	r31, 0x00	; 0
    115c:	af 01       	movw	r20, r30
    115e:	08 2e       	mov	r0, r24
    1160:	02 c0       	rjmp	.+4      	; 0x1166 <lcd_putc+0x1ce>
    1162:	55 95       	asr	r21
    1164:	47 95       	ror	r20
    1166:	0a 94       	dec	r0
    1168:	e2 f7       	brpl	.-8      	; 0x1162 <lcd_putc+0x1ca>
    116a:	40 ff       	sbrs	r20, 0
    116c:	1b c0       	rjmp	.+54     	; 0x11a4 <lcd_putc+0x20c>
    116e:	6d 91       	ld	r22, X+
    1170:	7c 91       	ld	r23, X
    1172:	11 97       	sbiw	r26, 0x01	; 1
    1174:	a8 01       	movw	r20, r16
    1176:	02 2e       	mov	r0, r18
    1178:	02 c0       	rjmp	.+4      	; 0x117e <lcd_putc+0x1e6>
    117a:	44 0f       	add	r20, r20
    117c:	55 1f       	adc	r21, r21
    117e:	0a 94       	dec	r0
    1180:	e2 f7       	brpl	.-8      	; 0x117a <lcd_putc+0x1e2>
    1182:	64 2b       	or	r22, r20
    1184:	75 2b       	or	r23, r21
    1186:	ac 01       	movw	r20, r24
    1188:	44 0f       	add	r20, r20
    118a:	55 1f       	adc	r21, r21
    118c:	18 01       	movw	r2, r16
    118e:	02 c0       	rjmp	.+4      	; 0x1194 <lcd_putc+0x1fc>
    1190:	22 0c       	add	r2, r2
    1192:	33 1c       	adc	r3, r3
    1194:	4a 95       	dec	r20
    1196:	e2 f7       	brpl	.-8      	; 0x1190 <lcd_putc+0x1f8>
    1198:	a1 01       	movw	r20, r2
    119a:	46 2b       	or	r20, r22
    119c:	57 2b       	or	r21, r23
    119e:	11 96       	adiw	r26, 0x01	; 1
    11a0:	5c 93       	st	X, r21
    11a2:	4e 93       	st	-X, r20
    11a4:	01 96       	adiw	r24, 0x01	; 1
    11a6:	2e 5f       	subi	r18, 0xFE	; 254
    11a8:	3f 4f       	sbci	r19, 0xFF	; 255
    11aa:	88 30       	cpi	r24, 0x08	; 8
    11ac:	91 05       	cpc	r25, r1
    11ae:	b1 f6       	brne	.-84     	; 0x115c <lcd_putc+0x1c4>
    11b0:	22 e0       	ldi	r18, 0x02	; 2
    11b2:	c2 0e       	add	r12, r18
    11b4:	d1 1c       	adc	r13, r1
    11b6:	3f ef       	ldi	r19, 0xFF	; 255
    11b8:	83 1a       	sub	r8, r19
    11ba:	93 0a       	sbc	r9, r19
    11bc:	c6 14       	cp	r12, r6
    11be:	d7 04       	cpc	r13, r7
    11c0:	09 f0       	breq	.+2      	; 0x11c4 <lcd_putc+0x22c>
    11c2:	c0 cf       	rjmp	.-128    	; 0x1144 <lcd_putc+0x1ac>
    11c4:	e0 91 a0 05 	lds	r30, 0x05A0	; 0x8005a0 <cursorPosition+0x1>
    11c8:	f0 e0       	ldi	r31, 0x00	; 0
    11ca:	31 96       	adiw	r30, 0x01	; 1
    11cc:	f6 95       	lsr	r31
    11ce:	fe 2f       	mov	r31, r30
    11d0:	ee 27       	eor	r30, r30
    11d2:	f7 95       	ror	r31
    11d4:	e7 95       	ror	r30
    11d6:	df 01       	movw	r26, r30
    11d8:	a4 0d       	add	r26, r4
    11da:	b5 1d       	adc	r27, r5
    11dc:	a1 56       	subi	r26, 0x61	; 97
    11de:	be 4f       	sbci	r27, 0xFE	; 254
    11e0:	e4 0d       	add	r30, r4
    11e2:	f5 1d       	adc	r31, r5
    11e4:	af 01       	movw	r20, r30
    11e6:	41 5e       	subi	r20, 0xE1	; 225
    11e8:	5e 4f       	sbci	r21, 0xFE	; 254
    11ea:	f7 01       	movw	r30, r14
    11ec:	80 81       	ld	r24, Z
    11ee:	91 81       	ldd	r25, Z+1	; 0x01
    11f0:	f2 e0       	ldi	r31, 0x02	; 2
    11f2:	ef 0e       	add	r14, r31
    11f4:	f1 1c       	adc	r15, r1
    11f6:	9c 93       	st	X, r25
    11f8:	11 96       	adiw	r26, 0x01	; 1
    11fa:	9c 93       	st	X, r25
    11fc:	11 97       	sbiw	r26, 0x01	; 1
    11fe:	fa 01       	movw	r30, r20
    1200:	80 83       	st	Z, r24
    1202:	81 83       	std	Z+1, r24	; 0x01
    1204:	12 96       	adiw	r26, 0x02	; 2
    1206:	4e 5f       	subi	r20, 0xFE	; 254
    1208:	5f 4f       	sbci	r21, 0xFF	; 255
    120a:	e6 14       	cp	r14, r6
    120c:	f7 04       	cpc	r15, r7
    120e:	69 f7       	brne	.-38     	; 0x11ea <lcd_putc+0x252>
    1210:	8c e0       	ldi	r24, 0x0C	; 12
    1212:	8b 0d       	add	r24, r11
    1214:	80 93 9f 05 	sts	0x059F, r24	; 0x80059f <cursorPosition>
    1218:	26 c0       	rjmp	.+76     	; 0x1266 <lcd_putc+0x2ce>
    121a:	ab 2d       	mov	r26, r11
    121c:	b0 e0       	ldi	r27, 0x00	; 0
    121e:	9d 01       	movw	r18, r26
    1220:	2a 5f       	subi	r18, 0xFA	; 250
    1222:	3f 4f       	sbci	r19, 0xFF	; 255
    1224:	21 38       	cpi	r18, 0x81	; 129
    1226:	31 05       	cpc	r19, r1
    1228:	f0 f4       	brcc	.+60     	; 0x1266 <lcd_putc+0x2ce>
    122a:	20 91 a0 05 	lds	r18, 0x05A0	; 0x8005a0 <cursorPosition+0x1>
    122e:	90 e0       	ldi	r25, 0x00	; 0
    1230:	fc 01       	movw	r30, r24
    1232:	ee 0f       	add	r30, r30
    1234:	ff 1f       	adc	r31, r31
    1236:	e8 0f       	add	r30, r24
    1238:	f9 1f       	adc	r31, r25
    123a:	ee 0f       	add	r30, r30
    123c:	ff 1f       	adc	r31, r31
    123e:	e1 55       	subi	r30, 0x51	; 81
    1240:	fe 4f       	sbci	r31, 0xFE	; 254
    1242:	30 e8       	ldi	r19, 0x80	; 128
    1244:	23 9f       	mul	r18, r19
    1246:	a0 0d       	add	r26, r0
    1248:	b1 1d       	adc	r27, r1
    124a:	11 24       	eor	r1, r1
    124c:	a1 56       	subi	r26, 0x61	; 97
    124e:	be 4f       	sbci	r27, 0xFE	; 254
    1250:	86 e0       	ldi	r24, 0x06	; 6
    1252:	94 91       	lpm	r25, Z
    1254:	9d 93       	st	X+, r25
    1256:	81 50       	subi	r24, 0x01	; 1
    1258:	31 96       	adiw	r30, 0x01	; 1
    125a:	81 11       	cpse	r24, r1
    125c:	fa cf       	rjmp	.-12     	; 0x1252 <lcd_putc+0x2ba>
    125e:	86 e0       	ldi	r24, 0x06	; 6
    1260:	8b 0d       	add	r24, r11
    1262:	80 93 9f 05 	sts	0x059F, r24	; 0x80059f <cursorPosition>
    1266:	2c 96       	adiw	r28, 0x0c	; 12
    1268:	0f b6       	in	r0, 0x3f	; 63
    126a:	f8 94       	cli
    126c:	de bf       	out	0x3e, r29	; 62
    126e:	0f be       	out	0x3f, r0	; 63
    1270:	cd bf       	out	0x3d, r28	; 61
    1272:	df 91       	pop	r29
    1274:	cf 91       	pop	r28
    1276:	1f 91       	pop	r17
    1278:	0f 91       	pop	r16
    127a:	ff 90       	pop	r15
    127c:	ef 90       	pop	r14
    127e:	df 90       	pop	r13
    1280:	cf 90       	pop	r12
    1282:	bf 90       	pop	r11
    1284:	9f 90       	pop	r9
    1286:	8f 90       	pop	r8
    1288:	7f 90       	pop	r7
    128a:	6f 90       	pop	r6
    128c:	5f 90       	pop	r5
    128e:	4f 90       	pop	r4
    1290:	3f 90       	pop	r3
    1292:	2f 90       	pop	r2
    1294:	08 95       	ret

00001296 <lcd_charMode>:
    1296:	80 93 4d 01 	sts	0x014D, r24	; 0x80014d <charMode>
    129a:	08 95       	ret

0000129c <lcd_puts>:
    129c:	cf 93       	push	r28
    129e:	df 93       	push	r29
    12a0:	ec 01       	movw	r28, r24
    12a2:	88 81       	ld	r24, Y
    12a4:	88 23       	and	r24, r24
    12a6:	31 f0       	breq	.+12     	; 0x12b4 <lcd_puts+0x18>
    12a8:	21 96       	adiw	r28, 0x01	; 1
    12aa:	0e 94 cc 07 	call	0xf98	; 0xf98 <lcd_putc>
    12ae:	89 91       	ld	r24, Y+
    12b0:	81 11       	cpse	r24, r1
    12b2:	fb cf       	rjmp	.-10     	; 0x12aa <lcd_puts+0xe>
    12b4:	df 91       	pop	r29
    12b6:	cf 91       	pop	r28
    12b8:	08 95       	ret

000012ba <lcd_display>:
void lcd_display() {
    12ba:	0f 93       	push	r16
    12bc:	1f 93       	push	r17
    12be:	cf 93       	push	r28
    12c0:	0f e9       	ldi	r16, 0x9F	; 159
    12c2:	11 e0       	ldi	r17, 0x01	; 1
#if defined (SSD1306) || defined (SSD1309)
    lcd_gotoxy(0,0);
    lcd_data(&displayBuffer[0][0], DISPLAY_WIDTH*DISPLAY_HEIGHT/8);
#elif defined SH1106
    for (uint8_t i = 0; i < DISPLAY_HEIGHT/8; i++){
    12c4:	c0 e0       	ldi	r28, 0x00	; 0
        lcd_gotoxy(0,i);
    12c6:	6c 2f       	mov	r22, r28
    12c8:	80 e0       	ldi	r24, 0x00	; 0
    12ca:	0e 94 71 07 	call	0xee2	; 0xee2 <lcd_gotoxy>
        lcd_data(displayBuffer[i], sizeof(displayBuffer[i]));
    12ce:	60 e8       	ldi	r22, 0x80	; 128
    12d0:	70 e0       	ldi	r23, 0x00	; 0
    12d2:	c8 01       	movw	r24, r16
    12d4:	0e 94 1a 07 	call	0xe34	; 0xe34 <lcd_data>
void lcd_display() {
#if defined (SSD1306) || defined (SSD1309)
    lcd_gotoxy(0,0);
    lcd_data(&displayBuffer[0][0], DISPLAY_WIDTH*DISPLAY_HEIGHT/8);
#elif defined SH1106
    for (uint8_t i = 0; i < DISPLAY_HEIGHT/8; i++){
    12d8:	cf 5f       	subi	r28, 0xFF	; 255
    12da:	00 58       	subi	r16, 0x80	; 128
    12dc:	1f 4f       	sbci	r17, 0xFF	; 255
    12de:	c8 30       	cpi	r28, 0x08	; 8
    12e0:	91 f7       	brne	.-28     	; 0x12c6 <lcd_display+0xc>
        lcd_gotoxy(0,i);
        lcd_data(displayBuffer[i], sizeof(displayBuffer[i]));
    }
#endif
}
    12e2:	cf 91       	pop	r28
    12e4:	1f 91       	pop	r17
    12e6:	0f 91       	pop	r16
    12e8:	08 95       	ret

000012ea <stateGet>:
extern uint8_t STATE = STATE_IDLE; 
extern uint8_t *ptrState = &STATE;

uint8_t stateGet(void){
	return STATE;
}
    12ea:	80 91 a1 05 	lds	r24, 0x05A1	; 0x8005a1 <STATE>
    12ee:	08 95       	ret

000012f0 <stateSet>:

uint8_t stateSet(uint8_t state){
	STATE = state;
    12f0:	80 93 a1 05 	sts	0x05A1, r24	; 0x8005a1 <STATE>
	return 1;
    12f4:	81 e0       	ldi	r24, 0x01	; 1
    12f6:	08 95       	ret

000012f8 <__vector_19>:

#ifndef NO_TX0_INTERRUPT

	ISR(UDRE0_INTERRUPT, ISR_NAKED)
	{
		asm volatile("\n\t"
    12f8:	0f 93       	push	r16
    12fa:	0f b7       	in	r16, 0x3f	; 63
    12fc:	ef 93       	push	r30
    12fe:	ff 93       	push	r31
    1300:	e0 91 3e 06 	lds	r30, 0x063E	; 0x80063e <tx0_Tail>
    1304:	f0 91 40 06 	lds	r31, 0x0640	; 0x800640 <tx0_Head>
    1308:	e3 95       	inc	r30
    130a:	ef 71       	andi	r30, 0x1F	; 31
    130c:	ef 13       	cpse	r30, r31
    130e:	05 c0       	rjmp	.+10     	; 0x131a <USART0_TX_CONTINUE>
    1310:	f0 91 c1 00 	lds	r31, 0x00C1	; 0x8000c1 <__TEXT_REGION_LENGTH__+0x7e00c1>
    1314:	ff 7d       	andi	r31, 0xDF	; 223
    1316:	f0 93 c1 00 	sts	0x00C1, r31	; 0x8000c1 <__TEXT_REGION_LENGTH__+0x7e00c1>

0000131a <USART0_TX_CONTINUE>:
    131a:	e0 93 3e 06 	sts	0x063E, r30	; 0x80063e <tx0_Tail>
    131e:	f0 e0       	ldi	r31, 0x00	; 0
    1320:	ee 5b       	subi	r30, 0xBE	; 190
    1322:	f9 4f       	sbci	r31, 0xF9	; 249
    1324:	e0 81       	ld	r30, Z
    1326:	e0 93 c6 00 	sts	0x00C6, r30	; 0x8000c6 <__TEXT_REGION_LENGTH__+0x7e00c6>

0000132a <USART0_TX_EXIT>:
    132a:	ff 91       	pop	r31
    132c:	ef 91       	pop	r30
    132e:	0f bf       	out	0x3f, r16	; 63
    1330:	0f 91       	pop	r16
    1332:	18 95       	reti

00001334 <__vector_18>:

#ifndef NO_RX0_INTERRUPT

	ISR(RX0_INTERRUPT, ISR_NAKED)
	{
		asm volatile("\n\t"
    1334:	0f 93       	push	r16
    1336:	0f b7       	in	r16, 0x3f	; 63
    1338:	9f 93       	push	r25
    133a:	90 91 c6 00 	lds	r25, 0x00C6	; 0x8000c6 <__TEXT_REGION_LENGTH__+0x7e00c6>
    133e:	ef 93       	push	r30
    1340:	ff 93       	push	r31
    1342:	e0 91 41 06 	lds	r30, 0x0641	; 0x800641 <rx0_Head>
    1346:	f0 91 3f 06 	lds	r31, 0x063F	; 0x80063f <rx0_Tail>
    134a:	e3 95       	inc	r30
    134c:	ef 71       	andi	r30, 0x1F	; 31
    134e:	fe 17       	cp	r31, r30
    1350:	31 f0       	breq	.+12     	; 0x135e <USART0_RX_EXIT>
    1352:	e0 93 41 06 	sts	0x0641, r30	; 0x800641 <rx0_Head>
    1356:	f0 e0       	ldi	r31, 0x00	; 0
    1358:	e2 5e       	subi	r30, 0xE2	; 226
    135a:	f9 4f       	sbci	r31, 0xF9	; 249
    135c:	90 83       	st	Z, r25

0000135e <USART0_RX_EXIT>:
    135e:	ff 91       	pop	r31
    1360:	ef 91       	pop	r30
    1362:	9f 91       	pop	r25
    1364:	0f bf       	out	0x3f, r16	; 63
    1366:	0f 91       	pop	r16
    1368:	18 95       	reti

0000136a <vfprintf>:
    136a:	a0 e1       	ldi	r26, 0x10	; 16
    136c:	b0 e0       	ldi	r27, 0x00	; 0
    136e:	eb eb       	ldi	r30, 0xBB	; 187
    1370:	f9 e0       	ldi	r31, 0x09	; 9
    1372:	0c 94 32 0d 	jmp	0x1a64	; 0x1a64 <__prologue_saves__>
    1376:	7c 01       	movw	r14, r24
    1378:	1b 01       	movw	r2, r22
    137a:	6a 01       	movw	r12, r20
    137c:	fc 01       	movw	r30, r24
    137e:	17 82       	std	Z+7, r1	; 0x07
    1380:	16 82       	std	Z+6, r1	; 0x06
    1382:	83 81       	ldd	r24, Z+3	; 0x03
    1384:	81 ff       	sbrs	r24, 1
    1386:	44 c3       	rjmp	.+1672   	; 0x1a10 <vfprintf+0x6a6>
    1388:	9e 01       	movw	r18, r28
    138a:	2f 5f       	subi	r18, 0xFF	; 255
    138c:	3f 4f       	sbci	r19, 0xFF	; 255
    138e:	39 01       	movw	r6, r18
    1390:	f7 01       	movw	r30, r14
    1392:	93 81       	ldd	r25, Z+3	; 0x03
    1394:	f1 01       	movw	r30, r2
    1396:	93 fd       	sbrc	r25, 3
    1398:	85 91       	lpm	r24, Z+
    139a:	93 ff       	sbrs	r25, 3
    139c:	81 91       	ld	r24, Z+
    139e:	1f 01       	movw	r2, r30
    13a0:	88 23       	and	r24, r24
    13a2:	09 f4       	brne	.+2      	; 0x13a6 <vfprintf+0x3c>
    13a4:	31 c3       	rjmp	.+1634   	; 0x1a08 <vfprintf+0x69e>
    13a6:	85 32       	cpi	r24, 0x25	; 37
    13a8:	39 f4       	brne	.+14     	; 0x13b8 <vfprintf+0x4e>
    13aa:	93 fd       	sbrc	r25, 3
    13ac:	85 91       	lpm	r24, Z+
    13ae:	93 ff       	sbrs	r25, 3
    13b0:	81 91       	ld	r24, Z+
    13b2:	1f 01       	movw	r2, r30
    13b4:	85 32       	cpi	r24, 0x25	; 37
    13b6:	39 f4       	brne	.+14     	; 0x13c6 <vfprintf+0x5c>
    13b8:	b7 01       	movw	r22, r14
    13ba:	90 e0       	ldi	r25, 0x00	; 0
    13bc:	0e 94 5f 10 	call	0x20be	; 0x20be <fputc>
    13c0:	56 01       	movw	r10, r12
    13c2:	65 01       	movw	r12, r10
    13c4:	e5 cf       	rjmp	.-54     	; 0x1390 <vfprintf+0x26>
    13c6:	10 e0       	ldi	r17, 0x00	; 0
    13c8:	51 2c       	mov	r5, r1
    13ca:	91 2c       	mov	r9, r1
    13cc:	ff e1       	ldi	r31, 0x1F	; 31
    13ce:	f9 15       	cp	r31, r9
    13d0:	d8 f0       	brcs	.+54     	; 0x1408 <vfprintf+0x9e>
    13d2:	8b 32       	cpi	r24, 0x2B	; 43
    13d4:	79 f0       	breq	.+30     	; 0x13f4 <vfprintf+0x8a>
    13d6:	38 f4       	brcc	.+14     	; 0x13e6 <vfprintf+0x7c>
    13d8:	80 32       	cpi	r24, 0x20	; 32
    13da:	79 f0       	breq	.+30     	; 0x13fa <vfprintf+0x90>
    13dc:	83 32       	cpi	r24, 0x23	; 35
    13de:	a1 f4       	brne	.+40     	; 0x1408 <vfprintf+0x9e>
    13e0:	f9 2d       	mov	r31, r9
    13e2:	f0 61       	ori	r31, 0x10	; 16
    13e4:	2e c0       	rjmp	.+92     	; 0x1442 <vfprintf+0xd8>
    13e6:	8d 32       	cpi	r24, 0x2D	; 45
    13e8:	61 f0       	breq	.+24     	; 0x1402 <vfprintf+0x98>
    13ea:	80 33       	cpi	r24, 0x30	; 48
    13ec:	69 f4       	brne	.+26     	; 0x1408 <vfprintf+0x9e>
    13ee:	29 2d       	mov	r18, r9
    13f0:	21 60       	ori	r18, 0x01	; 1
    13f2:	2d c0       	rjmp	.+90     	; 0x144e <vfprintf+0xe4>
    13f4:	39 2d       	mov	r19, r9
    13f6:	32 60       	ori	r19, 0x02	; 2
    13f8:	93 2e       	mov	r9, r19
    13fa:	89 2d       	mov	r24, r9
    13fc:	84 60       	ori	r24, 0x04	; 4
    13fe:	98 2e       	mov	r9, r24
    1400:	2a c0       	rjmp	.+84     	; 0x1456 <vfprintf+0xec>
    1402:	e9 2d       	mov	r30, r9
    1404:	e8 60       	ori	r30, 0x08	; 8
    1406:	15 c0       	rjmp	.+42     	; 0x1432 <vfprintf+0xc8>
    1408:	97 fc       	sbrc	r9, 7
    140a:	2d c0       	rjmp	.+90     	; 0x1466 <vfprintf+0xfc>
    140c:	20 ed       	ldi	r18, 0xD0	; 208
    140e:	28 0f       	add	r18, r24
    1410:	2a 30       	cpi	r18, 0x0A	; 10
    1412:	88 f4       	brcc	.+34     	; 0x1436 <vfprintf+0xcc>
    1414:	96 fe       	sbrs	r9, 6
    1416:	06 c0       	rjmp	.+12     	; 0x1424 <vfprintf+0xba>
    1418:	3a e0       	ldi	r19, 0x0A	; 10
    141a:	13 9f       	mul	r17, r19
    141c:	20 0d       	add	r18, r0
    141e:	11 24       	eor	r1, r1
    1420:	12 2f       	mov	r17, r18
    1422:	19 c0       	rjmp	.+50     	; 0x1456 <vfprintf+0xec>
    1424:	8a e0       	ldi	r24, 0x0A	; 10
    1426:	58 9e       	mul	r5, r24
    1428:	20 0d       	add	r18, r0
    142a:	11 24       	eor	r1, r1
    142c:	52 2e       	mov	r5, r18
    142e:	e9 2d       	mov	r30, r9
    1430:	e0 62       	ori	r30, 0x20	; 32
    1432:	9e 2e       	mov	r9, r30
    1434:	10 c0       	rjmp	.+32     	; 0x1456 <vfprintf+0xec>
    1436:	8e 32       	cpi	r24, 0x2E	; 46
    1438:	31 f4       	brne	.+12     	; 0x1446 <vfprintf+0xdc>
    143a:	96 fc       	sbrc	r9, 6
    143c:	e5 c2       	rjmp	.+1482   	; 0x1a08 <vfprintf+0x69e>
    143e:	f9 2d       	mov	r31, r9
    1440:	f0 64       	ori	r31, 0x40	; 64
    1442:	9f 2e       	mov	r9, r31
    1444:	08 c0       	rjmp	.+16     	; 0x1456 <vfprintf+0xec>
    1446:	8c 36       	cpi	r24, 0x6C	; 108
    1448:	21 f4       	brne	.+8      	; 0x1452 <vfprintf+0xe8>
    144a:	29 2d       	mov	r18, r9
    144c:	20 68       	ori	r18, 0x80	; 128
    144e:	92 2e       	mov	r9, r18
    1450:	02 c0       	rjmp	.+4      	; 0x1456 <vfprintf+0xec>
    1452:	88 36       	cpi	r24, 0x68	; 104
    1454:	41 f4       	brne	.+16     	; 0x1466 <vfprintf+0xfc>
    1456:	f1 01       	movw	r30, r2
    1458:	93 fd       	sbrc	r25, 3
    145a:	85 91       	lpm	r24, Z+
    145c:	93 ff       	sbrs	r25, 3
    145e:	81 91       	ld	r24, Z+
    1460:	1f 01       	movw	r2, r30
    1462:	81 11       	cpse	r24, r1
    1464:	b3 cf       	rjmp	.-154    	; 0x13cc <vfprintf+0x62>
    1466:	9b eb       	ldi	r25, 0xBB	; 187
    1468:	98 0f       	add	r25, r24
    146a:	93 30       	cpi	r25, 0x03	; 3
    146c:	20 f4       	brcc	.+8      	; 0x1476 <vfprintf+0x10c>
    146e:	99 2d       	mov	r25, r9
    1470:	90 61       	ori	r25, 0x10	; 16
    1472:	80 5e       	subi	r24, 0xE0	; 224
    1474:	07 c0       	rjmp	.+14     	; 0x1484 <vfprintf+0x11a>
    1476:	9b e9       	ldi	r25, 0x9B	; 155
    1478:	98 0f       	add	r25, r24
    147a:	93 30       	cpi	r25, 0x03	; 3
    147c:	08 f0       	brcs	.+2      	; 0x1480 <vfprintf+0x116>
    147e:	66 c1       	rjmp	.+716    	; 0x174c <vfprintf+0x3e2>
    1480:	99 2d       	mov	r25, r9
    1482:	9f 7e       	andi	r25, 0xEF	; 239
    1484:	96 ff       	sbrs	r25, 6
    1486:	16 e0       	ldi	r17, 0x06	; 6
    1488:	9f 73       	andi	r25, 0x3F	; 63
    148a:	99 2e       	mov	r9, r25
    148c:	85 36       	cpi	r24, 0x65	; 101
    148e:	19 f4       	brne	.+6      	; 0x1496 <vfprintf+0x12c>
    1490:	90 64       	ori	r25, 0x40	; 64
    1492:	99 2e       	mov	r9, r25
    1494:	08 c0       	rjmp	.+16     	; 0x14a6 <vfprintf+0x13c>
    1496:	86 36       	cpi	r24, 0x66	; 102
    1498:	21 f4       	brne	.+8      	; 0x14a2 <vfprintf+0x138>
    149a:	39 2f       	mov	r19, r25
    149c:	30 68       	ori	r19, 0x80	; 128
    149e:	93 2e       	mov	r9, r19
    14a0:	02 c0       	rjmp	.+4      	; 0x14a6 <vfprintf+0x13c>
    14a2:	11 11       	cpse	r17, r1
    14a4:	11 50       	subi	r17, 0x01	; 1
    14a6:	97 fe       	sbrs	r9, 7
    14a8:	07 c0       	rjmp	.+14     	; 0x14b8 <vfprintf+0x14e>
    14aa:	1c 33       	cpi	r17, 0x3C	; 60
    14ac:	50 f4       	brcc	.+20     	; 0x14c2 <vfprintf+0x158>
    14ae:	44 24       	eor	r4, r4
    14b0:	43 94       	inc	r4
    14b2:	41 0e       	add	r4, r17
    14b4:	27 e0       	ldi	r18, 0x07	; 7
    14b6:	0b c0       	rjmp	.+22     	; 0x14ce <vfprintf+0x164>
    14b8:	18 30       	cpi	r17, 0x08	; 8
    14ba:	38 f0       	brcs	.+14     	; 0x14ca <vfprintf+0x160>
    14bc:	27 e0       	ldi	r18, 0x07	; 7
    14be:	17 e0       	ldi	r17, 0x07	; 7
    14c0:	05 c0       	rjmp	.+10     	; 0x14cc <vfprintf+0x162>
    14c2:	27 e0       	ldi	r18, 0x07	; 7
    14c4:	9c e3       	ldi	r25, 0x3C	; 60
    14c6:	49 2e       	mov	r4, r25
    14c8:	02 c0       	rjmp	.+4      	; 0x14ce <vfprintf+0x164>
    14ca:	21 2f       	mov	r18, r17
    14cc:	41 2c       	mov	r4, r1
    14ce:	56 01       	movw	r10, r12
    14d0:	84 e0       	ldi	r24, 0x04	; 4
    14d2:	a8 0e       	add	r10, r24
    14d4:	b1 1c       	adc	r11, r1
    14d6:	f6 01       	movw	r30, r12
    14d8:	60 81       	ld	r22, Z
    14da:	71 81       	ldd	r23, Z+1	; 0x01
    14dc:	82 81       	ldd	r24, Z+2	; 0x02
    14de:	93 81       	ldd	r25, Z+3	; 0x03
    14e0:	04 2d       	mov	r16, r4
    14e2:	a3 01       	movw	r20, r6
    14e4:	0e 94 71 0f 	call	0x1ee2	; 0x1ee2 <__ftoa_engine>
    14e8:	6c 01       	movw	r12, r24
    14ea:	f9 81       	ldd	r31, Y+1	; 0x01
    14ec:	fc 87       	std	Y+12, r31	; 0x0c
    14ee:	f0 ff       	sbrs	r31, 0
    14f0:	02 c0       	rjmp	.+4      	; 0x14f6 <vfprintf+0x18c>
    14f2:	f3 ff       	sbrs	r31, 3
    14f4:	06 c0       	rjmp	.+12     	; 0x1502 <vfprintf+0x198>
    14f6:	91 fc       	sbrc	r9, 1
    14f8:	06 c0       	rjmp	.+12     	; 0x1506 <vfprintf+0x19c>
    14fa:	92 fe       	sbrs	r9, 2
    14fc:	06 c0       	rjmp	.+12     	; 0x150a <vfprintf+0x1a0>
    14fe:	00 e2       	ldi	r16, 0x20	; 32
    1500:	05 c0       	rjmp	.+10     	; 0x150c <vfprintf+0x1a2>
    1502:	0d e2       	ldi	r16, 0x2D	; 45
    1504:	03 c0       	rjmp	.+6      	; 0x150c <vfprintf+0x1a2>
    1506:	0b e2       	ldi	r16, 0x2B	; 43
    1508:	01 c0       	rjmp	.+2      	; 0x150c <vfprintf+0x1a2>
    150a:	00 e0       	ldi	r16, 0x00	; 0
    150c:	8c 85       	ldd	r24, Y+12	; 0x0c
    150e:	8c 70       	andi	r24, 0x0C	; 12
    1510:	19 f0       	breq	.+6      	; 0x1518 <vfprintf+0x1ae>
    1512:	01 11       	cpse	r16, r1
    1514:	5a c2       	rjmp	.+1204   	; 0x19ca <vfprintf+0x660>
    1516:	9b c2       	rjmp	.+1334   	; 0x1a4e <vfprintf+0x6e4>
    1518:	97 fe       	sbrs	r9, 7
    151a:	10 c0       	rjmp	.+32     	; 0x153c <vfprintf+0x1d2>
    151c:	4c 0c       	add	r4, r12
    151e:	fc 85       	ldd	r31, Y+12	; 0x0c
    1520:	f4 ff       	sbrs	r31, 4
    1522:	04 c0       	rjmp	.+8      	; 0x152c <vfprintf+0x1c2>
    1524:	8a 81       	ldd	r24, Y+2	; 0x02
    1526:	81 33       	cpi	r24, 0x31	; 49
    1528:	09 f4       	brne	.+2      	; 0x152c <vfprintf+0x1c2>
    152a:	4a 94       	dec	r4
    152c:	14 14       	cp	r1, r4
    152e:	74 f5       	brge	.+92     	; 0x158c <vfprintf+0x222>
    1530:	28 e0       	ldi	r18, 0x08	; 8
    1532:	24 15       	cp	r18, r4
    1534:	78 f5       	brcc	.+94     	; 0x1594 <vfprintf+0x22a>
    1536:	88 e0       	ldi	r24, 0x08	; 8
    1538:	48 2e       	mov	r4, r24
    153a:	2c c0       	rjmp	.+88     	; 0x1594 <vfprintf+0x22a>
    153c:	96 fc       	sbrc	r9, 6
    153e:	2a c0       	rjmp	.+84     	; 0x1594 <vfprintf+0x22a>
    1540:	81 2f       	mov	r24, r17
    1542:	90 e0       	ldi	r25, 0x00	; 0
    1544:	8c 15       	cp	r24, r12
    1546:	9d 05       	cpc	r25, r13
    1548:	9c f0       	brlt	.+38     	; 0x1570 <vfprintf+0x206>
    154a:	3c ef       	ldi	r19, 0xFC	; 252
    154c:	c3 16       	cp	r12, r19
    154e:	3f ef       	ldi	r19, 0xFF	; 255
    1550:	d3 06       	cpc	r13, r19
    1552:	74 f0       	brlt	.+28     	; 0x1570 <vfprintf+0x206>
    1554:	89 2d       	mov	r24, r9
    1556:	80 68       	ori	r24, 0x80	; 128
    1558:	98 2e       	mov	r9, r24
    155a:	0a c0       	rjmp	.+20     	; 0x1570 <vfprintf+0x206>
    155c:	e2 e0       	ldi	r30, 0x02	; 2
    155e:	f0 e0       	ldi	r31, 0x00	; 0
    1560:	ec 0f       	add	r30, r28
    1562:	fd 1f       	adc	r31, r29
    1564:	e1 0f       	add	r30, r17
    1566:	f1 1d       	adc	r31, r1
    1568:	80 81       	ld	r24, Z
    156a:	80 33       	cpi	r24, 0x30	; 48
    156c:	19 f4       	brne	.+6      	; 0x1574 <vfprintf+0x20a>
    156e:	11 50       	subi	r17, 0x01	; 1
    1570:	11 11       	cpse	r17, r1
    1572:	f4 cf       	rjmp	.-24     	; 0x155c <vfprintf+0x1f2>
    1574:	97 fe       	sbrs	r9, 7
    1576:	0e c0       	rjmp	.+28     	; 0x1594 <vfprintf+0x22a>
    1578:	44 24       	eor	r4, r4
    157a:	43 94       	inc	r4
    157c:	41 0e       	add	r4, r17
    157e:	81 2f       	mov	r24, r17
    1580:	90 e0       	ldi	r25, 0x00	; 0
    1582:	c8 16       	cp	r12, r24
    1584:	d9 06       	cpc	r13, r25
    1586:	2c f4       	brge	.+10     	; 0x1592 <vfprintf+0x228>
    1588:	1c 19       	sub	r17, r12
    158a:	04 c0       	rjmp	.+8      	; 0x1594 <vfprintf+0x22a>
    158c:	44 24       	eor	r4, r4
    158e:	43 94       	inc	r4
    1590:	01 c0       	rjmp	.+2      	; 0x1594 <vfprintf+0x22a>
    1592:	10 e0       	ldi	r17, 0x00	; 0
    1594:	97 fe       	sbrs	r9, 7
    1596:	06 c0       	rjmp	.+12     	; 0x15a4 <vfprintf+0x23a>
    1598:	1c 14       	cp	r1, r12
    159a:	1d 04       	cpc	r1, r13
    159c:	34 f4       	brge	.+12     	; 0x15aa <vfprintf+0x240>
    159e:	c6 01       	movw	r24, r12
    15a0:	01 96       	adiw	r24, 0x01	; 1
    15a2:	05 c0       	rjmp	.+10     	; 0x15ae <vfprintf+0x244>
    15a4:	85 e0       	ldi	r24, 0x05	; 5
    15a6:	90 e0       	ldi	r25, 0x00	; 0
    15a8:	02 c0       	rjmp	.+4      	; 0x15ae <vfprintf+0x244>
    15aa:	81 e0       	ldi	r24, 0x01	; 1
    15ac:	90 e0       	ldi	r25, 0x00	; 0
    15ae:	01 11       	cpse	r16, r1
    15b0:	01 96       	adiw	r24, 0x01	; 1
    15b2:	11 23       	and	r17, r17
    15b4:	31 f0       	breq	.+12     	; 0x15c2 <vfprintf+0x258>
    15b6:	21 2f       	mov	r18, r17
    15b8:	30 e0       	ldi	r19, 0x00	; 0
    15ba:	2f 5f       	subi	r18, 0xFF	; 255
    15bc:	3f 4f       	sbci	r19, 0xFF	; 255
    15be:	82 0f       	add	r24, r18
    15c0:	93 1f       	adc	r25, r19
    15c2:	25 2d       	mov	r18, r5
    15c4:	30 e0       	ldi	r19, 0x00	; 0
    15c6:	82 17       	cp	r24, r18
    15c8:	93 07       	cpc	r25, r19
    15ca:	14 f4       	brge	.+4      	; 0x15d0 <vfprintf+0x266>
    15cc:	58 1a       	sub	r5, r24
    15ce:	01 c0       	rjmp	.+2      	; 0x15d2 <vfprintf+0x268>
    15d0:	51 2c       	mov	r5, r1
    15d2:	89 2d       	mov	r24, r9
    15d4:	89 70       	andi	r24, 0x09	; 9
    15d6:	49 f4       	brne	.+18     	; 0x15ea <vfprintf+0x280>
    15d8:	55 20       	and	r5, r5
    15da:	39 f0       	breq	.+14     	; 0x15ea <vfprintf+0x280>
    15dc:	b7 01       	movw	r22, r14
    15de:	80 e2       	ldi	r24, 0x20	; 32
    15e0:	90 e0       	ldi	r25, 0x00	; 0
    15e2:	0e 94 5f 10 	call	0x20be	; 0x20be <fputc>
    15e6:	5a 94       	dec	r5
    15e8:	f7 cf       	rjmp	.-18     	; 0x15d8 <vfprintf+0x26e>
    15ea:	00 23       	and	r16, r16
    15ec:	29 f0       	breq	.+10     	; 0x15f8 <vfprintf+0x28e>
    15ee:	b7 01       	movw	r22, r14
    15f0:	80 2f       	mov	r24, r16
    15f2:	90 e0       	ldi	r25, 0x00	; 0
    15f4:	0e 94 5f 10 	call	0x20be	; 0x20be <fputc>
    15f8:	93 fc       	sbrc	r9, 3
    15fa:	09 c0       	rjmp	.+18     	; 0x160e <vfprintf+0x2a4>
    15fc:	55 20       	and	r5, r5
    15fe:	39 f0       	breq	.+14     	; 0x160e <vfprintf+0x2a4>
    1600:	b7 01       	movw	r22, r14
    1602:	80 e3       	ldi	r24, 0x30	; 48
    1604:	90 e0       	ldi	r25, 0x00	; 0
    1606:	0e 94 5f 10 	call	0x20be	; 0x20be <fputc>
    160a:	5a 94       	dec	r5
    160c:	f7 cf       	rjmp	.-18     	; 0x15fc <vfprintf+0x292>
    160e:	97 fe       	sbrs	r9, 7
    1610:	4c c0       	rjmp	.+152    	; 0x16aa <vfprintf+0x340>
    1612:	46 01       	movw	r8, r12
    1614:	d7 fe       	sbrs	r13, 7
    1616:	02 c0       	rjmp	.+4      	; 0x161c <vfprintf+0x2b2>
    1618:	81 2c       	mov	r8, r1
    161a:	91 2c       	mov	r9, r1
    161c:	c6 01       	movw	r24, r12
    161e:	88 19       	sub	r24, r8
    1620:	99 09       	sbc	r25, r9
    1622:	f3 01       	movw	r30, r6
    1624:	e8 0f       	add	r30, r24
    1626:	f9 1f       	adc	r31, r25
    1628:	fe 87       	std	Y+14, r31	; 0x0e
    162a:	ed 87       	std	Y+13, r30	; 0x0d
    162c:	96 01       	movw	r18, r12
    162e:	24 19       	sub	r18, r4
    1630:	31 09       	sbc	r19, r1
    1632:	38 8b       	std	Y+16, r19	; 0x10
    1634:	2f 87       	std	Y+15, r18	; 0x0f
    1636:	01 2f       	mov	r16, r17
    1638:	10 e0       	ldi	r17, 0x00	; 0
    163a:	11 95       	neg	r17
    163c:	01 95       	neg	r16
    163e:	11 09       	sbc	r17, r1
    1640:	3f ef       	ldi	r19, 0xFF	; 255
    1642:	83 16       	cp	r8, r19
    1644:	93 06       	cpc	r9, r19
    1646:	29 f4       	brne	.+10     	; 0x1652 <vfprintf+0x2e8>
    1648:	b7 01       	movw	r22, r14
    164a:	8e e2       	ldi	r24, 0x2E	; 46
    164c:	90 e0       	ldi	r25, 0x00	; 0
    164e:	0e 94 5f 10 	call	0x20be	; 0x20be <fputc>
    1652:	c8 14       	cp	r12, r8
    1654:	d9 04       	cpc	r13, r9
    1656:	4c f0       	brlt	.+18     	; 0x166a <vfprintf+0x300>
    1658:	8f 85       	ldd	r24, Y+15	; 0x0f
    165a:	98 89       	ldd	r25, Y+16	; 0x10
    165c:	88 15       	cp	r24, r8
    165e:	99 05       	cpc	r25, r9
    1660:	24 f4       	brge	.+8      	; 0x166a <vfprintf+0x300>
    1662:	ed 85       	ldd	r30, Y+13	; 0x0d
    1664:	fe 85       	ldd	r31, Y+14	; 0x0e
    1666:	81 81       	ldd	r24, Z+1	; 0x01
    1668:	01 c0       	rjmp	.+2      	; 0x166c <vfprintf+0x302>
    166a:	80 e3       	ldi	r24, 0x30	; 48
    166c:	f1 e0       	ldi	r31, 0x01	; 1
    166e:	8f 1a       	sub	r8, r31
    1670:	91 08       	sbc	r9, r1
    1672:	2d 85       	ldd	r18, Y+13	; 0x0d
    1674:	3e 85       	ldd	r19, Y+14	; 0x0e
    1676:	2f 5f       	subi	r18, 0xFF	; 255
    1678:	3f 4f       	sbci	r19, 0xFF	; 255
    167a:	3e 87       	std	Y+14, r19	; 0x0e
    167c:	2d 87       	std	Y+13, r18	; 0x0d
    167e:	80 16       	cp	r8, r16
    1680:	91 06       	cpc	r9, r17
    1682:	2c f0       	brlt	.+10     	; 0x168e <vfprintf+0x324>
    1684:	b7 01       	movw	r22, r14
    1686:	90 e0       	ldi	r25, 0x00	; 0
    1688:	0e 94 5f 10 	call	0x20be	; 0x20be <fputc>
    168c:	d9 cf       	rjmp	.-78     	; 0x1640 <vfprintf+0x2d6>
    168e:	c8 14       	cp	r12, r8
    1690:	d9 04       	cpc	r13, r9
    1692:	41 f4       	brne	.+16     	; 0x16a4 <vfprintf+0x33a>
    1694:	9a 81       	ldd	r25, Y+2	; 0x02
    1696:	96 33       	cpi	r25, 0x36	; 54
    1698:	20 f4       	brcc	.+8      	; 0x16a2 <vfprintf+0x338>
    169a:	95 33       	cpi	r25, 0x35	; 53
    169c:	19 f4       	brne	.+6      	; 0x16a4 <vfprintf+0x33a>
    169e:	3c 85       	ldd	r19, Y+12	; 0x0c
    16a0:	34 ff       	sbrs	r19, 4
    16a2:	81 e3       	ldi	r24, 0x31	; 49
    16a4:	b7 01       	movw	r22, r14
    16a6:	90 e0       	ldi	r25, 0x00	; 0
    16a8:	4e c0       	rjmp	.+156    	; 0x1746 <vfprintf+0x3dc>
    16aa:	8a 81       	ldd	r24, Y+2	; 0x02
    16ac:	81 33       	cpi	r24, 0x31	; 49
    16ae:	19 f0       	breq	.+6      	; 0x16b6 <vfprintf+0x34c>
    16b0:	9c 85       	ldd	r25, Y+12	; 0x0c
    16b2:	9f 7e       	andi	r25, 0xEF	; 239
    16b4:	9c 87       	std	Y+12, r25	; 0x0c
    16b6:	b7 01       	movw	r22, r14
    16b8:	90 e0       	ldi	r25, 0x00	; 0
    16ba:	0e 94 5f 10 	call	0x20be	; 0x20be <fputc>
    16be:	11 11       	cpse	r17, r1
    16c0:	05 c0       	rjmp	.+10     	; 0x16cc <vfprintf+0x362>
    16c2:	94 fc       	sbrc	r9, 4
    16c4:	18 c0       	rjmp	.+48     	; 0x16f6 <vfprintf+0x38c>
    16c6:	85 e6       	ldi	r24, 0x65	; 101
    16c8:	90 e0       	ldi	r25, 0x00	; 0
    16ca:	17 c0       	rjmp	.+46     	; 0x16fa <vfprintf+0x390>
    16cc:	b7 01       	movw	r22, r14
    16ce:	8e e2       	ldi	r24, 0x2E	; 46
    16d0:	90 e0       	ldi	r25, 0x00	; 0
    16d2:	0e 94 5f 10 	call	0x20be	; 0x20be <fputc>
    16d6:	1e 5f       	subi	r17, 0xFE	; 254
    16d8:	82 e0       	ldi	r24, 0x02	; 2
    16da:	01 e0       	ldi	r16, 0x01	; 1
    16dc:	08 0f       	add	r16, r24
    16de:	f3 01       	movw	r30, r6
    16e0:	e8 0f       	add	r30, r24
    16e2:	f1 1d       	adc	r31, r1
    16e4:	80 81       	ld	r24, Z
    16e6:	b7 01       	movw	r22, r14
    16e8:	90 e0       	ldi	r25, 0x00	; 0
    16ea:	0e 94 5f 10 	call	0x20be	; 0x20be <fputc>
    16ee:	80 2f       	mov	r24, r16
    16f0:	01 13       	cpse	r16, r17
    16f2:	f3 cf       	rjmp	.-26     	; 0x16da <vfprintf+0x370>
    16f4:	e6 cf       	rjmp	.-52     	; 0x16c2 <vfprintf+0x358>
    16f6:	85 e4       	ldi	r24, 0x45	; 69
    16f8:	90 e0       	ldi	r25, 0x00	; 0
    16fa:	b7 01       	movw	r22, r14
    16fc:	0e 94 5f 10 	call	0x20be	; 0x20be <fputc>
    1700:	d7 fc       	sbrc	r13, 7
    1702:	06 c0       	rjmp	.+12     	; 0x1710 <vfprintf+0x3a6>
    1704:	c1 14       	cp	r12, r1
    1706:	d1 04       	cpc	r13, r1
    1708:	41 f4       	brne	.+16     	; 0x171a <vfprintf+0x3b0>
    170a:	ec 85       	ldd	r30, Y+12	; 0x0c
    170c:	e4 ff       	sbrs	r30, 4
    170e:	05 c0       	rjmp	.+10     	; 0x171a <vfprintf+0x3b0>
    1710:	d1 94       	neg	r13
    1712:	c1 94       	neg	r12
    1714:	d1 08       	sbc	r13, r1
    1716:	8d e2       	ldi	r24, 0x2D	; 45
    1718:	01 c0       	rjmp	.+2      	; 0x171c <vfprintf+0x3b2>
    171a:	8b e2       	ldi	r24, 0x2B	; 43
    171c:	b7 01       	movw	r22, r14
    171e:	90 e0       	ldi	r25, 0x00	; 0
    1720:	0e 94 5f 10 	call	0x20be	; 0x20be <fputc>
    1724:	80 e3       	ldi	r24, 0x30	; 48
    1726:	2a e0       	ldi	r18, 0x0A	; 10
    1728:	c2 16       	cp	r12, r18
    172a:	d1 04       	cpc	r13, r1
    172c:	2c f0       	brlt	.+10     	; 0x1738 <vfprintf+0x3ce>
    172e:	8f 5f       	subi	r24, 0xFF	; 255
    1730:	fa e0       	ldi	r31, 0x0A	; 10
    1732:	cf 1a       	sub	r12, r31
    1734:	d1 08       	sbc	r13, r1
    1736:	f7 cf       	rjmp	.-18     	; 0x1726 <vfprintf+0x3bc>
    1738:	b7 01       	movw	r22, r14
    173a:	90 e0       	ldi	r25, 0x00	; 0
    173c:	0e 94 5f 10 	call	0x20be	; 0x20be <fputc>
    1740:	b7 01       	movw	r22, r14
    1742:	c6 01       	movw	r24, r12
    1744:	c0 96       	adiw	r24, 0x30	; 48
    1746:	0e 94 5f 10 	call	0x20be	; 0x20be <fputc>
    174a:	54 c1       	rjmp	.+680    	; 0x19f4 <vfprintf+0x68a>
    174c:	83 36       	cpi	r24, 0x63	; 99
    174e:	31 f0       	breq	.+12     	; 0x175c <vfprintf+0x3f2>
    1750:	83 37       	cpi	r24, 0x73	; 115
    1752:	79 f0       	breq	.+30     	; 0x1772 <vfprintf+0x408>
    1754:	83 35       	cpi	r24, 0x53	; 83
    1756:	09 f0       	breq	.+2      	; 0x175a <vfprintf+0x3f0>
    1758:	56 c0       	rjmp	.+172    	; 0x1806 <vfprintf+0x49c>
    175a:	20 c0       	rjmp	.+64     	; 0x179c <vfprintf+0x432>
    175c:	56 01       	movw	r10, r12
    175e:	32 e0       	ldi	r19, 0x02	; 2
    1760:	a3 0e       	add	r10, r19
    1762:	b1 1c       	adc	r11, r1
    1764:	f6 01       	movw	r30, r12
    1766:	80 81       	ld	r24, Z
    1768:	89 83       	std	Y+1, r24	; 0x01
    176a:	01 e0       	ldi	r16, 0x01	; 1
    176c:	10 e0       	ldi	r17, 0x00	; 0
    176e:	63 01       	movw	r12, r6
    1770:	12 c0       	rjmp	.+36     	; 0x1796 <vfprintf+0x42c>
    1772:	56 01       	movw	r10, r12
    1774:	f2 e0       	ldi	r31, 0x02	; 2
    1776:	af 0e       	add	r10, r31
    1778:	b1 1c       	adc	r11, r1
    177a:	f6 01       	movw	r30, r12
    177c:	c0 80       	ld	r12, Z
    177e:	d1 80       	ldd	r13, Z+1	; 0x01
    1780:	96 fe       	sbrs	r9, 6
    1782:	03 c0       	rjmp	.+6      	; 0x178a <vfprintf+0x420>
    1784:	61 2f       	mov	r22, r17
    1786:	70 e0       	ldi	r23, 0x00	; 0
    1788:	02 c0       	rjmp	.+4      	; 0x178e <vfprintf+0x424>
    178a:	6f ef       	ldi	r22, 0xFF	; 255
    178c:	7f ef       	ldi	r23, 0xFF	; 255
    178e:	c6 01       	movw	r24, r12
    1790:	0e 94 54 10 	call	0x20a8	; 0x20a8 <strnlen>
    1794:	8c 01       	movw	r16, r24
    1796:	f9 2d       	mov	r31, r9
    1798:	ff 77       	andi	r31, 0x7F	; 127
    179a:	14 c0       	rjmp	.+40     	; 0x17c4 <vfprintf+0x45a>
    179c:	56 01       	movw	r10, r12
    179e:	22 e0       	ldi	r18, 0x02	; 2
    17a0:	a2 0e       	add	r10, r18
    17a2:	b1 1c       	adc	r11, r1
    17a4:	f6 01       	movw	r30, r12
    17a6:	c0 80       	ld	r12, Z
    17a8:	d1 80       	ldd	r13, Z+1	; 0x01
    17aa:	96 fe       	sbrs	r9, 6
    17ac:	03 c0       	rjmp	.+6      	; 0x17b4 <vfprintf+0x44a>
    17ae:	61 2f       	mov	r22, r17
    17b0:	70 e0       	ldi	r23, 0x00	; 0
    17b2:	02 c0       	rjmp	.+4      	; 0x17b8 <vfprintf+0x44e>
    17b4:	6f ef       	ldi	r22, 0xFF	; 255
    17b6:	7f ef       	ldi	r23, 0xFF	; 255
    17b8:	c6 01       	movw	r24, r12
    17ba:	0e 94 49 10 	call	0x2092	; 0x2092 <strnlen_P>
    17be:	8c 01       	movw	r16, r24
    17c0:	f9 2d       	mov	r31, r9
    17c2:	f0 68       	ori	r31, 0x80	; 128
    17c4:	9f 2e       	mov	r9, r31
    17c6:	f3 fd       	sbrc	r31, 3
    17c8:	1a c0       	rjmp	.+52     	; 0x17fe <vfprintf+0x494>
    17ca:	85 2d       	mov	r24, r5
    17cc:	90 e0       	ldi	r25, 0x00	; 0
    17ce:	08 17       	cp	r16, r24
    17d0:	19 07       	cpc	r17, r25
    17d2:	a8 f4       	brcc	.+42     	; 0x17fe <vfprintf+0x494>
    17d4:	b7 01       	movw	r22, r14
    17d6:	80 e2       	ldi	r24, 0x20	; 32
    17d8:	90 e0       	ldi	r25, 0x00	; 0
    17da:	0e 94 5f 10 	call	0x20be	; 0x20be <fputc>
    17de:	5a 94       	dec	r5
    17e0:	f4 cf       	rjmp	.-24     	; 0x17ca <vfprintf+0x460>
    17e2:	f6 01       	movw	r30, r12
    17e4:	97 fc       	sbrc	r9, 7
    17e6:	85 91       	lpm	r24, Z+
    17e8:	97 fe       	sbrs	r9, 7
    17ea:	81 91       	ld	r24, Z+
    17ec:	6f 01       	movw	r12, r30
    17ee:	b7 01       	movw	r22, r14
    17f0:	90 e0       	ldi	r25, 0x00	; 0
    17f2:	0e 94 5f 10 	call	0x20be	; 0x20be <fputc>
    17f6:	51 10       	cpse	r5, r1
    17f8:	5a 94       	dec	r5
    17fa:	01 50       	subi	r16, 0x01	; 1
    17fc:	11 09       	sbc	r17, r1
    17fe:	01 15       	cp	r16, r1
    1800:	11 05       	cpc	r17, r1
    1802:	79 f7       	brne	.-34     	; 0x17e2 <vfprintf+0x478>
    1804:	f7 c0       	rjmp	.+494    	; 0x19f4 <vfprintf+0x68a>
    1806:	84 36       	cpi	r24, 0x64	; 100
    1808:	11 f0       	breq	.+4      	; 0x180e <vfprintf+0x4a4>
    180a:	89 36       	cpi	r24, 0x69	; 105
    180c:	61 f5       	brne	.+88     	; 0x1866 <vfprintf+0x4fc>
    180e:	56 01       	movw	r10, r12
    1810:	97 fe       	sbrs	r9, 7
    1812:	09 c0       	rjmp	.+18     	; 0x1826 <vfprintf+0x4bc>
    1814:	24 e0       	ldi	r18, 0x04	; 4
    1816:	a2 0e       	add	r10, r18
    1818:	b1 1c       	adc	r11, r1
    181a:	f6 01       	movw	r30, r12
    181c:	60 81       	ld	r22, Z
    181e:	71 81       	ldd	r23, Z+1	; 0x01
    1820:	82 81       	ldd	r24, Z+2	; 0x02
    1822:	93 81       	ldd	r25, Z+3	; 0x03
    1824:	0a c0       	rjmp	.+20     	; 0x183a <vfprintf+0x4d0>
    1826:	f2 e0       	ldi	r31, 0x02	; 2
    1828:	af 0e       	add	r10, r31
    182a:	b1 1c       	adc	r11, r1
    182c:	f6 01       	movw	r30, r12
    182e:	60 81       	ld	r22, Z
    1830:	71 81       	ldd	r23, Z+1	; 0x01
    1832:	07 2e       	mov	r0, r23
    1834:	00 0c       	add	r0, r0
    1836:	88 0b       	sbc	r24, r24
    1838:	99 0b       	sbc	r25, r25
    183a:	f9 2d       	mov	r31, r9
    183c:	ff 76       	andi	r31, 0x6F	; 111
    183e:	9f 2e       	mov	r9, r31
    1840:	97 ff       	sbrs	r25, 7
    1842:	09 c0       	rjmp	.+18     	; 0x1856 <vfprintf+0x4ec>
    1844:	90 95       	com	r25
    1846:	80 95       	com	r24
    1848:	70 95       	com	r23
    184a:	61 95       	neg	r22
    184c:	7f 4f       	sbci	r23, 0xFF	; 255
    184e:	8f 4f       	sbci	r24, 0xFF	; 255
    1850:	9f 4f       	sbci	r25, 0xFF	; 255
    1852:	f0 68       	ori	r31, 0x80	; 128
    1854:	9f 2e       	mov	r9, r31
    1856:	2a e0       	ldi	r18, 0x0A	; 10
    1858:	30 e0       	ldi	r19, 0x00	; 0
    185a:	a3 01       	movw	r20, r6
    185c:	0e 94 df 10 	call	0x21be	; 0x21be <__ultoa_invert>
    1860:	c8 2e       	mov	r12, r24
    1862:	c6 18       	sub	r12, r6
    1864:	3f c0       	rjmp	.+126    	; 0x18e4 <vfprintf+0x57a>
    1866:	09 2d       	mov	r16, r9
    1868:	85 37       	cpi	r24, 0x75	; 117
    186a:	21 f4       	brne	.+8      	; 0x1874 <vfprintf+0x50a>
    186c:	0f 7e       	andi	r16, 0xEF	; 239
    186e:	2a e0       	ldi	r18, 0x0A	; 10
    1870:	30 e0       	ldi	r19, 0x00	; 0
    1872:	1d c0       	rjmp	.+58     	; 0x18ae <vfprintf+0x544>
    1874:	09 7f       	andi	r16, 0xF9	; 249
    1876:	8f 36       	cpi	r24, 0x6F	; 111
    1878:	91 f0       	breq	.+36     	; 0x189e <vfprintf+0x534>
    187a:	18 f4       	brcc	.+6      	; 0x1882 <vfprintf+0x518>
    187c:	88 35       	cpi	r24, 0x58	; 88
    187e:	59 f0       	breq	.+22     	; 0x1896 <vfprintf+0x52c>
    1880:	c3 c0       	rjmp	.+390    	; 0x1a08 <vfprintf+0x69e>
    1882:	80 37       	cpi	r24, 0x70	; 112
    1884:	19 f0       	breq	.+6      	; 0x188c <vfprintf+0x522>
    1886:	88 37       	cpi	r24, 0x78	; 120
    1888:	11 f0       	breq	.+4      	; 0x188e <vfprintf+0x524>
    188a:	be c0       	rjmp	.+380    	; 0x1a08 <vfprintf+0x69e>
    188c:	00 61       	ori	r16, 0x10	; 16
    188e:	04 ff       	sbrs	r16, 4
    1890:	09 c0       	rjmp	.+18     	; 0x18a4 <vfprintf+0x53a>
    1892:	04 60       	ori	r16, 0x04	; 4
    1894:	07 c0       	rjmp	.+14     	; 0x18a4 <vfprintf+0x53a>
    1896:	94 fe       	sbrs	r9, 4
    1898:	08 c0       	rjmp	.+16     	; 0x18aa <vfprintf+0x540>
    189a:	06 60       	ori	r16, 0x06	; 6
    189c:	06 c0       	rjmp	.+12     	; 0x18aa <vfprintf+0x540>
    189e:	28 e0       	ldi	r18, 0x08	; 8
    18a0:	30 e0       	ldi	r19, 0x00	; 0
    18a2:	05 c0       	rjmp	.+10     	; 0x18ae <vfprintf+0x544>
    18a4:	20 e1       	ldi	r18, 0x10	; 16
    18a6:	30 e0       	ldi	r19, 0x00	; 0
    18a8:	02 c0       	rjmp	.+4      	; 0x18ae <vfprintf+0x544>
    18aa:	20 e1       	ldi	r18, 0x10	; 16
    18ac:	32 e0       	ldi	r19, 0x02	; 2
    18ae:	56 01       	movw	r10, r12
    18b0:	07 ff       	sbrs	r16, 7
    18b2:	09 c0       	rjmp	.+18     	; 0x18c6 <vfprintf+0x55c>
    18b4:	84 e0       	ldi	r24, 0x04	; 4
    18b6:	a8 0e       	add	r10, r24
    18b8:	b1 1c       	adc	r11, r1
    18ba:	f6 01       	movw	r30, r12
    18bc:	60 81       	ld	r22, Z
    18be:	71 81       	ldd	r23, Z+1	; 0x01
    18c0:	82 81       	ldd	r24, Z+2	; 0x02
    18c2:	93 81       	ldd	r25, Z+3	; 0x03
    18c4:	08 c0       	rjmp	.+16     	; 0x18d6 <vfprintf+0x56c>
    18c6:	f2 e0       	ldi	r31, 0x02	; 2
    18c8:	af 0e       	add	r10, r31
    18ca:	b1 1c       	adc	r11, r1
    18cc:	f6 01       	movw	r30, r12
    18ce:	60 81       	ld	r22, Z
    18d0:	71 81       	ldd	r23, Z+1	; 0x01
    18d2:	80 e0       	ldi	r24, 0x00	; 0
    18d4:	90 e0       	ldi	r25, 0x00	; 0
    18d6:	a3 01       	movw	r20, r6
    18d8:	0e 94 df 10 	call	0x21be	; 0x21be <__ultoa_invert>
    18dc:	c8 2e       	mov	r12, r24
    18de:	c6 18       	sub	r12, r6
    18e0:	0f 77       	andi	r16, 0x7F	; 127
    18e2:	90 2e       	mov	r9, r16
    18e4:	96 fe       	sbrs	r9, 6
    18e6:	0b c0       	rjmp	.+22     	; 0x18fe <vfprintf+0x594>
    18e8:	09 2d       	mov	r16, r9
    18ea:	0e 7f       	andi	r16, 0xFE	; 254
    18ec:	c1 16       	cp	r12, r17
    18ee:	50 f4       	brcc	.+20     	; 0x1904 <vfprintf+0x59a>
    18f0:	94 fe       	sbrs	r9, 4
    18f2:	0a c0       	rjmp	.+20     	; 0x1908 <vfprintf+0x59e>
    18f4:	92 fc       	sbrc	r9, 2
    18f6:	08 c0       	rjmp	.+16     	; 0x1908 <vfprintf+0x59e>
    18f8:	09 2d       	mov	r16, r9
    18fa:	0e 7e       	andi	r16, 0xEE	; 238
    18fc:	05 c0       	rjmp	.+10     	; 0x1908 <vfprintf+0x59e>
    18fe:	dc 2c       	mov	r13, r12
    1900:	09 2d       	mov	r16, r9
    1902:	03 c0       	rjmp	.+6      	; 0x190a <vfprintf+0x5a0>
    1904:	dc 2c       	mov	r13, r12
    1906:	01 c0       	rjmp	.+2      	; 0x190a <vfprintf+0x5a0>
    1908:	d1 2e       	mov	r13, r17
    190a:	04 ff       	sbrs	r16, 4
    190c:	0d c0       	rjmp	.+26     	; 0x1928 <vfprintf+0x5be>
    190e:	fe 01       	movw	r30, r28
    1910:	ec 0d       	add	r30, r12
    1912:	f1 1d       	adc	r31, r1
    1914:	80 81       	ld	r24, Z
    1916:	80 33       	cpi	r24, 0x30	; 48
    1918:	11 f4       	brne	.+4      	; 0x191e <vfprintf+0x5b4>
    191a:	09 7e       	andi	r16, 0xE9	; 233
    191c:	09 c0       	rjmp	.+18     	; 0x1930 <vfprintf+0x5c6>
    191e:	02 ff       	sbrs	r16, 2
    1920:	06 c0       	rjmp	.+12     	; 0x192e <vfprintf+0x5c4>
    1922:	d3 94       	inc	r13
    1924:	d3 94       	inc	r13
    1926:	04 c0       	rjmp	.+8      	; 0x1930 <vfprintf+0x5c6>
    1928:	80 2f       	mov	r24, r16
    192a:	86 78       	andi	r24, 0x86	; 134
    192c:	09 f0       	breq	.+2      	; 0x1930 <vfprintf+0x5c6>
    192e:	d3 94       	inc	r13
    1930:	03 fd       	sbrc	r16, 3
    1932:	11 c0       	rjmp	.+34     	; 0x1956 <vfprintf+0x5ec>
    1934:	00 ff       	sbrs	r16, 0
    1936:	06 c0       	rjmp	.+12     	; 0x1944 <vfprintf+0x5da>
    1938:	1c 2d       	mov	r17, r12
    193a:	d5 14       	cp	r13, r5
    193c:	80 f4       	brcc	.+32     	; 0x195e <vfprintf+0x5f4>
    193e:	15 0d       	add	r17, r5
    1940:	1d 19       	sub	r17, r13
    1942:	0d c0       	rjmp	.+26     	; 0x195e <vfprintf+0x5f4>
    1944:	d5 14       	cp	r13, r5
    1946:	58 f4       	brcc	.+22     	; 0x195e <vfprintf+0x5f4>
    1948:	b7 01       	movw	r22, r14
    194a:	80 e2       	ldi	r24, 0x20	; 32
    194c:	90 e0       	ldi	r25, 0x00	; 0
    194e:	0e 94 5f 10 	call	0x20be	; 0x20be <fputc>
    1952:	d3 94       	inc	r13
    1954:	f7 cf       	rjmp	.-18     	; 0x1944 <vfprintf+0x5da>
    1956:	d5 14       	cp	r13, r5
    1958:	10 f4       	brcc	.+4      	; 0x195e <vfprintf+0x5f4>
    195a:	5d 18       	sub	r5, r13
    195c:	01 c0       	rjmp	.+2      	; 0x1960 <vfprintf+0x5f6>
    195e:	51 2c       	mov	r5, r1
    1960:	04 ff       	sbrs	r16, 4
    1962:	10 c0       	rjmp	.+32     	; 0x1984 <vfprintf+0x61a>
    1964:	b7 01       	movw	r22, r14
    1966:	80 e3       	ldi	r24, 0x30	; 48
    1968:	90 e0       	ldi	r25, 0x00	; 0
    196a:	0e 94 5f 10 	call	0x20be	; 0x20be <fputc>
    196e:	02 ff       	sbrs	r16, 2
    1970:	17 c0       	rjmp	.+46     	; 0x19a0 <vfprintf+0x636>
    1972:	01 fd       	sbrc	r16, 1
    1974:	03 c0       	rjmp	.+6      	; 0x197c <vfprintf+0x612>
    1976:	88 e7       	ldi	r24, 0x78	; 120
    1978:	90 e0       	ldi	r25, 0x00	; 0
    197a:	02 c0       	rjmp	.+4      	; 0x1980 <vfprintf+0x616>
    197c:	88 e5       	ldi	r24, 0x58	; 88
    197e:	90 e0       	ldi	r25, 0x00	; 0
    1980:	b7 01       	movw	r22, r14
    1982:	0c c0       	rjmp	.+24     	; 0x199c <vfprintf+0x632>
    1984:	80 2f       	mov	r24, r16
    1986:	86 78       	andi	r24, 0x86	; 134
    1988:	59 f0       	breq	.+22     	; 0x19a0 <vfprintf+0x636>
    198a:	01 ff       	sbrs	r16, 1
    198c:	02 c0       	rjmp	.+4      	; 0x1992 <vfprintf+0x628>
    198e:	8b e2       	ldi	r24, 0x2B	; 43
    1990:	01 c0       	rjmp	.+2      	; 0x1994 <vfprintf+0x62a>
    1992:	80 e2       	ldi	r24, 0x20	; 32
    1994:	07 fd       	sbrc	r16, 7
    1996:	8d e2       	ldi	r24, 0x2D	; 45
    1998:	b7 01       	movw	r22, r14
    199a:	90 e0       	ldi	r25, 0x00	; 0
    199c:	0e 94 5f 10 	call	0x20be	; 0x20be <fputc>
    19a0:	c1 16       	cp	r12, r17
    19a2:	38 f4       	brcc	.+14     	; 0x19b2 <vfprintf+0x648>
    19a4:	b7 01       	movw	r22, r14
    19a6:	80 e3       	ldi	r24, 0x30	; 48
    19a8:	90 e0       	ldi	r25, 0x00	; 0
    19aa:	0e 94 5f 10 	call	0x20be	; 0x20be <fputc>
    19ae:	11 50       	subi	r17, 0x01	; 1
    19b0:	f7 cf       	rjmp	.-18     	; 0x19a0 <vfprintf+0x636>
    19b2:	ca 94       	dec	r12
    19b4:	f3 01       	movw	r30, r6
    19b6:	ec 0d       	add	r30, r12
    19b8:	f1 1d       	adc	r31, r1
    19ba:	80 81       	ld	r24, Z
    19bc:	b7 01       	movw	r22, r14
    19be:	90 e0       	ldi	r25, 0x00	; 0
    19c0:	0e 94 5f 10 	call	0x20be	; 0x20be <fputc>
    19c4:	c1 10       	cpse	r12, r1
    19c6:	f5 cf       	rjmp	.-22     	; 0x19b2 <vfprintf+0x648>
    19c8:	15 c0       	rjmp	.+42     	; 0x19f4 <vfprintf+0x68a>
    19ca:	f4 e0       	ldi	r31, 0x04	; 4
    19cc:	f5 15       	cp	r31, r5
    19ce:	60 f5       	brcc	.+88     	; 0x1a28 <vfprintf+0x6be>
    19d0:	84 e0       	ldi	r24, 0x04	; 4
    19d2:	58 1a       	sub	r5, r24
    19d4:	93 fe       	sbrs	r9, 3
    19d6:	1f c0       	rjmp	.+62     	; 0x1a16 <vfprintf+0x6ac>
    19d8:	01 11       	cpse	r16, r1
    19da:	27 c0       	rjmp	.+78     	; 0x1a2a <vfprintf+0x6c0>
    19dc:	2c 85       	ldd	r18, Y+12	; 0x0c
    19de:	23 ff       	sbrs	r18, 3
    19e0:	2a c0       	rjmp	.+84     	; 0x1a36 <vfprintf+0x6cc>
    19e2:	08 e6       	ldi	r16, 0x68	; 104
    19e4:	10 e0       	ldi	r17, 0x00	; 0
    19e6:	39 2d       	mov	r19, r9
    19e8:	30 71       	andi	r19, 0x10	; 16
    19ea:	93 2e       	mov	r9, r19
    19ec:	f8 01       	movw	r30, r16
    19ee:	84 91       	lpm	r24, Z
    19f0:	81 11       	cpse	r24, r1
    19f2:	24 c0       	rjmp	.+72     	; 0x1a3c <vfprintf+0x6d2>
    19f4:	55 20       	and	r5, r5
    19f6:	09 f4       	brne	.+2      	; 0x19fa <vfprintf+0x690>
    19f8:	e4 cc       	rjmp	.-1592   	; 0x13c2 <vfprintf+0x58>
    19fa:	b7 01       	movw	r22, r14
    19fc:	80 e2       	ldi	r24, 0x20	; 32
    19fe:	90 e0       	ldi	r25, 0x00	; 0
    1a00:	0e 94 5f 10 	call	0x20be	; 0x20be <fputc>
    1a04:	5a 94       	dec	r5
    1a06:	f6 cf       	rjmp	.-20     	; 0x19f4 <vfprintf+0x68a>
    1a08:	f7 01       	movw	r30, r14
    1a0a:	86 81       	ldd	r24, Z+6	; 0x06
    1a0c:	97 81       	ldd	r25, Z+7	; 0x07
    1a0e:	26 c0       	rjmp	.+76     	; 0x1a5c <vfprintf+0x6f2>
    1a10:	8f ef       	ldi	r24, 0xFF	; 255
    1a12:	9f ef       	ldi	r25, 0xFF	; 255
    1a14:	23 c0       	rjmp	.+70     	; 0x1a5c <vfprintf+0x6f2>
    1a16:	b7 01       	movw	r22, r14
    1a18:	80 e2       	ldi	r24, 0x20	; 32
    1a1a:	90 e0       	ldi	r25, 0x00	; 0
    1a1c:	0e 94 5f 10 	call	0x20be	; 0x20be <fputc>
    1a20:	5a 94       	dec	r5
    1a22:	51 10       	cpse	r5, r1
    1a24:	f8 cf       	rjmp	.-16     	; 0x1a16 <vfprintf+0x6ac>
    1a26:	d8 cf       	rjmp	.-80     	; 0x19d8 <vfprintf+0x66e>
    1a28:	51 2c       	mov	r5, r1
    1a2a:	b7 01       	movw	r22, r14
    1a2c:	80 2f       	mov	r24, r16
    1a2e:	90 e0       	ldi	r25, 0x00	; 0
    1a30:	0e 94 5f 10 	call	0x20be	; 0x20be <fputc>
    1a34:	d3 cf       	rjmp	.-90     	; 0x19dc <vfprintf+0x672>
    1a36:	0c e6       	ldi	r16, 0x6C	; 108
    1a38:	10 e0       	ldi	r17, 0x00	; 0
    1a3a:	d5 cf       	rjmp	.-86     	; 0x19e6 <vfprintf+0x67c>
    1a3c:	91 10       	cpse	r9, r1
    1a3e:	80 52       	subi	r24, 0x20	; 32
    1a40:	b7 01       	movw	r22, r14
    1a42:	90 e0       	ldi	r25, 0x00	; 0
    1a44:	0e 94 5f 10 	call	0x20be	; 0x20be <fputc>
    1a48:	0f 5f       	subi	r16, 0xFF	; 255
    1a4a:	1f 4f       	sbci	r17, 0xFF	; 255
    1a4c:	cf cf       	rjmp	.-98     	; 0x19ec <vfprintf+0x682>
    1a4e:	23 e0       	ldi	r18, 0x03	; 3
    1a50:	25 15       	cp	r18, r5
    1a52:	10 f4       	brcc	.+4      	; 0x1a58 <vfprintf+0x6ee>
    1a54:	83 e0       	ldi	r24, 0x03	; 3
    1a56:	bd cf       	rjmp	.-134    	; 0x19d2 <vfprintf+0x668>
    1a58:	51 2c       	mov	r5, r1
    1a5a:	c0 cf       	rjmp	.-128    	; 0x19dc <vfprintf+0x672>
    1a5c:	60 96       	adiw	r28, 0x10	; 16
    1a5e:	e2 e1       	ldi	r30, 0x12	; 18
    1a60:	0c 94 4e 0d 	jmp	0x1a9c	; 0x1a9c <__epilogue_restores__>

00001a64 <__prologue_saves__>:
    1a64:	2f 92       	push	r2
    1a66:	3f 92       	push	r3
    1a68:	4f 92       	push	r4
    1a6a:	5f 92       	push	r5
    1a6c:	6f 92       	push	r6
    1a6e:	7f 92       	push	r7
    1a70:	8f 92       	push	r8
    1a72:	9f 92       	push	r9
    1a74:	af 92       	push	r10
    1a76:	bf 92       	push	r11
    1a78:	cf 92       	push	r12
    1a7a:	df 92       	push	r13
    1a7c:	ef 92       	push	r14
    1a7e:	ff 92       	push	r15
    1a80:	0f 93       	push	r16
    1a82:	1f 93       	push	r17
    1a84:	cf 93       	push	r28
    1a86:	df 93       	push	r29
    1a88:	cd b7       	in	r28, 0x3d	; 61
    1a8a:	de b7       	in	r29, 0x3e	; 62
    1a8c:	ca 1b       	sub	r28, r26
    1a8e:	db 0b       	sbc	r29, r27
    1a90:	0f b6       	in	r0, 0x3f	; 63
    1a92:	f8 94       	cli
    1a94:	de bf       	out	0x3e, r29	; 62
    1a96:	0f be       	out	0x3f, r0	; 63
    1a98:	cd bf       	out	0x3d, r28	; 61
    1a9a:	09 94       	ijmp

00001a9c <__epilogue_restores__>:
    1a9c:	2a 88       	ldd	r2, Y+18	; 0x12
    1a9e:	39 88       	ldd	r3, Y+17	; 0x11
    1aa0:	48 88       	ldd	r4, Y+16	; 0x10
    1aa2:	5f 84       	ldd	r5, Y+15	; 0x0f
    1aa4:	6e 84       	ldd	r6, Y+14	; 0x0e
    1aa6:	7d 84       	ldd	r7, Y+13	; 0x0d
    1aa8:	8c 84       	ldd	r8, Y+12	; 0x0c
    1aaa:	9b 84       	ldd	r9, Y+11	; 0x0b
    1aac:	aa 84       	ldd	r10, Y+10	; 0x0a
    1aae:	b9 84       	ldd	r11, Y+9	; 0x09
    1ab0:	c8 84       	ldd	r12, Y+8	; 0x08
    1ab2:	df 80       	ldd	r13, Y+7	; 0x07
    1ab4:	ee 80       	ldd	r14, Y+6	; 0x06
    1ab6:	fd 80       	ldd	r15, Y+5	; 0x05
    1ab8:	0c 81       	ldd	r16, Y+4	; 0x04
    1aba:	1b 81       	ldd	r17, Y+3	; 0x03
    1abc:	aa 81       	ldd	r26, Y+2	; 0x02
    1abe:	b9 81       	ldd	r27, Y+1	; 0x01
    1ac0:	ce 0f       	add	r28, r30
    1ac2:	d1 1d       	adc	r29, r1
    1ac4:	0f b6       	in	r0, 0x3f	; 63
    1ac6:	f8 94       	cli
    1ac8:	de bf       	out	0x3e, r29	; 62
    1aca:	0f be       	out	0x3f, r0	; 63
    1acc:	cd bf       	out	0x3d, r28	; 61
    1ace:	ed 01       	movw	r28, r26
    1ad0:	08 95       	ret

00001ad2 <__subsf3>:
    1ad2:	50 58       	subi	r21, 0x80	; 128

00001ad4 <__addsf3>:
    1ad4:	bb 27       	eor	r27, r27
    1ad6:	aa 27       	eor	r26, r26
    1ad8:	0e 94 81 0d 	call	0x1b02	; 0x1b02 <__addsf3x>
    1adc:	0c 94 c5 0e 	jmp	0x1d8a	; 0x1d8a <__fp_round>
    1ae0:	0e 94 b7 0e 	call	0x1d6e	; 0x1d6e <__fp_pscA>
    1ae4:	38 f0       	brcs	.+14     	; 0x1af4 <__addsf3+0x20>
    1ae6:	0e 94 be 0e 	call	0x1d7c	; 0x1d7c <__fp_pscB>
    1aea:	20 f0       	brcs	.+8      	; 0x1af4 <__addsf3+0x20>
    1aec:	39 f4       	brne	.+14     	; 0x1afc <__addsf3+0x28>
    1aee:	9f 3f       	cpi	r25, 0xFF	; 255
    1af0:	19 f4       	brne	.+6      	; 0x1af8 <__addsf3+0x24>
    1af2:	26 f4       	brtc	.+8      	; 0x1afc <__addsf3+0x28>
    1af4:	0c 94 b4 0e 	jmp	0x1d68	; 0x1d68 <__fp_nan>
    1af8:	0e f4       	brtc	.+2      	; 0x1afc <__addsf3+0x28>
    1afa:	e0 95       	com	r30
    1afc:	e7 fb       	bst	r30, 7
    1afe:	0c 94 ae 0e 	jmp	0x1d5c	; 0x1d5c <__fp_inf>

00001b02 <__addsf3x>:
    1b02:	e9 2f       	mov	r30, r25
    1b04:	0e 94 d6 0e 	call	0x1dac	; 0x1dac <__fp_split3>
    1b08:	58 f3       	brcs	.-42     	; 0x1ae0 <__addsf3+0xc>
    1b0a:	ba 17       	cp	r27, r26
    1b0c:	62 07       	cpc	r22, r18
    1b0e:	73 07       	cpc	r23, r19
    1b10:	84 07       	cpc	r24, r20
    1b12:	95 07       	cpc	r25, r21
    1b14:	20 f0       	brcs	.+8      	; 0x1b1e <__addsf3x+0x1c>
    1b16:	79 f4       	brne	.+30     	; 0x1b36 <__addsf3x+0x34>
    1b18:	a6 f5       	brtc	.+104    	; 0x1b82 <__addsf3x+0x80>
    1b1a:	0c 94 f8 0e 	jmp	0x1df0	; 0x1df0 <__fp_zero>
    1b1e:	0e f4       	brtc	.+2      	; 0x1b22 <__addsf3x+0x20>
    1b20:	e0 95       	com	r30
    1b22:	0b 2e       	mov	r0, r27
    1b24:	ba 2f       	mov	r27, r26
    1b26:	a0 2d       	mov	r26, r0
    1b28:	0b 01       	movw	r0, r22
    1b2a:	b9 01       	movw	r22, r18
    1b2c:	90 01       	movw	r18, r0
    1b2e:	0c 01       	movw	r0, r24
    1b30:	ca 01       	movw	r24, r20
    1b32:	a0 01       	movw	r20, r0
    1b34:	11 24       	eor	r1, r1
    1b36:	ff 27       	eor	r31, r31
    1b38:	59 1b       	sub	r21, r25
    1b3a:	99 f0       	breq	.+38     	; 0x1b62 <__addsf3x+0x60>
    1b3c:	59 3f       	cpi	r21, 0xF9	; 249
    1b3e:	50 f4       	brcc	.+20     	; 0x1b54 <__addsf3x+0x52>
    1b40:	50 3e       	cpi	r21, 0xE0	; 224
    1b42:	68 f1       	brcs	.+90     	; 0x1b9e <__addsf3x+0x9c>
    1b44:	1a 16       	cp	r1, r26
    1b46:	f0 40       	sbci	r31, 0x00	; 0
    1b48:	a2 2f       	mov	r26, r18
    1b4a:	23 2f       	mov	r18, r19
    1b4c:	34 2f       	mov	r19, r20
    1b4e:	44 27       	eor	r20, r20
    1b50:	58 5f       	subi	r21, 0xF8	; 248
    1b52:	f3 cf       	rjmp	.-26     	; 0x1b3a <__addsf3x+0x38>
    1b54:	46 95       	lsr	r20
    1b56:	37 95       	ror	r19
    1b58:	27 95       	ror	r18
    1b5a:	a7 95       	ror	r26
    1b5c:	f0 40       	sbci	r31, 0x00	; 0
    1b5e:	53 95       	inc	r21
    1b60:	c9 f7       	brne	.-14     	; 0x1b54 <__addsf3x+0x52>
    1b62:	7e f4       	brtc	.+30     	; 0x1b82 <__addsf3x+0x80>
    1b64:	1f 16       	cp	r1, r31
    1b66:	ba 0b       	sbc	r27, r26
    1b68:	62 0b       	sbc	r22, r18
    1b6a:	73 0b       	sbc	r23, r19
    1b6c:	84 0b       	sbc	r24, r20
    1b6e:	ba f0       	brmi	.+46     	; 0x1b9e <__addsf3x+0x9c>
    1b70:	91 50       	subi	r25, 0x01	; 1
    1b72:	a1 f0       	breq	.+40     	; 0x1b9c <__addsf3x+0x9a>
    1b74:	ff 0f       	add	r31, r31
    1b76:	bb 1f       	adc	r27, r27
    1b78:	66 1f       	adc	r22, r22
    1b7a:	77 1f       	adc	r23, r23
    1b7c:	88 1f       	adc	r24, r24
    1b7e:	c2 f7       	brpl	.-16     	; 0x1b70 <__addsf3x+0x6e>
    1b80:	0e c0       	rjmp	.+28     	; 0x1b9e <__addsf3x+0x9c>
    1b82:	ba 0f       	add	r27, r26
    1b84:	62 1f       	adc	r22, r18
    1b86:	73 1f       	adc	r23, r19
    1b88:	84 1f       	adc	r24, r20
    1b8a:	48 f4       	brcc	.+18     	; 0x1b9e <__addsf3x+0x9c>
    1b8c:	87 95       	ror	r24
    1b8e:	77 95       	ror	r23
    1b90:	67 95       	ror	r22
    1b92:	b7 95       	ror	r27
    1b94:	f7 95       	ror	r31
    1b96:	9e 3f       	cpi	r25, 0xFE	; 254
    1b98:	08 f0       	brcs	.+2      	; 0x1b9c <__addsf3x+0x9a>
    1b9a:	b0 cf       	rjmp	.-160    	; 0x1afc <__addsf3+0x28>
    1b9c:	93 95       	inc	r25
    1b9e:	88 0f       	add	r24, r24
    1ba0:	08 f0       	brcs	.+2      	; 0x1ba4 <__addsf3x+0xa2>
    1ba2:	99 27       	eor	r25, r25
    1ba4:	ee 0f       	add	r30, r30
    1ba6:	97 95       	ror	r25
    1ba8:	87 95       	ror	r24
    1baa:	08 95       	ret

00001bac <__cmpsf2>:
    1bac:	0e 94 8a 0e 	call	0x1d14	; 0x1d14 <__fp_cmp>
    1bb0:	08 f4       	brcc	.+2      	; 0x1bb4 <__cmpsf2+0x8>
    1bb2:	81 e0       	ldi	r24, 0x01	; 1
    1bb4:	08 95       	ret

00001bb6 <__divsf3>:
    1bb6:	0e 94 ef 0d 	call	0x1bde	; 0x1bde <__divsf3x>
    1bba:	0c 94 c5 0e 	jmp	0x1d8a	; 0x1d8a <__fp_round>
    1bbe:	0e 94 be 0e 	call	0x1d7c	; 0x1d7c <__fp_pscB>
    1bc2:	58 f0       	brcs	.+22     	; 0x1bda <__divsf3+0x24>
    1bc4:	0e 94 b7 0e 	call	0x1d6e	; 0x1d6e <__fp_pscA>
    1bc8:	40 f0       	brcs	.+16     	; 0x1bda <__divsf3+0x24>
    1bca:	29 f4       	brne	.+10     	; 0x1bd6 <__divsf3+0x20>
    1bcc:	5f 3f       	cpi	r21, 0xFF	; 255
    1bce:	29 f0       	breq	.+10     	; 0x1bda <__divsf3+0x24>
    1bd0:	0c 94 ae 0e 	jmp	0x1d5c	; 0x1d5c <__fp_inf>
    1bd4:	51 11       	cpse	r21, r1
    1bd6:	0c 94 f9 0e 	jmp	0x1df2	; 0x1df2 <__fp_szero>
    1bda:	0c 94 b4 0e 	jmp	0x1d68	; 0x1d68 <__fp_nan>

00001bde <__divsf3x>:
    1bde:	0e 94 d6 0e 	call	0x1dac	; 0x1dac <__fp_split3>
    1be2:	68 f3       	brcs	.-38     	; 0x1bbe <__divsf3+0x8>

00001be4 <__divsf3_pse>:
    1be4:	99 23       	and	r25, r25
    1be6:	b1 f3       	breq	.-20     	; 0x1bd4 <__divsf3+0x1e>
    1be8:	55 23       	and	r21, r21
    1bea:	91 f3       	breq	.-28     	; 0x1bd0 <__divsf3+0x1a>
    1bec:	95 1b       	sub	r25, r21
    1bee:	55 0b       	sbc	r21, r21
    1bf0:	bb 27       	eor	r27, r27
    1bf2:	aa 27       	eor	r26, r26
    1bf4:	62 17       	cp	r22, r18
    1bf6:	73 07       	cpc	r23, r19
    1bf8:	84 07       	cpc	r24, r20
    1bfa:	38 f0       	brcs	.+14     	; 0x1c0a <__divsf3_pse+0x26>
    1bfc:	9f 5f       	subi	r25, 0xFF	; 255
    1bfe:	5f 4f       	sbci	r21, 0xFF	; 255
    1c00:	22 0f       	add	r18, r18
    1c02:	33 1f       	adc	r19, r19
    1c04:	44 1f       	adc	r20, r20
    1c06:	aa 1f       	adc	r26, r26
    1c08:	a9 f3       	breq	.-22     	; 0x1bf4 <__divsf3_pse+0x10>
    1c0a:	35 d0       	rcall	.+106    	; 0x1c76 <__divsf3_pse+0x92>
    1c0c:	0e 2e       	mov	r0, r30
    1c0e:	3a f0       	brmi	.+14     	; 0x1c1e <__divsf3_pse+0x3a>
    1c10:	e0 e8       	ldi	r30, 0x80	; 128
    1c12:	32 d0       	rcall	.+100    	; 0x1c78 <__divsf3_pse+0x94>
    1c14:	91 50       	subi	r25, 0x01	; 1
    1c16:	50 40       	sbci	r21, 0x00	; 0
    1c18:	e6 95       	lsr	r30
    1c1a:	00 1c       	adc	r0, r0
    1c1c:	ca f7       	brpl	.-14     	; 0x1c10 <__divsf3_pse+0x2c>
    1c1e:	2b d0       	rcall	.+86     	; 0x1c76 <__divsf3_pse+0x92>
    1c20:	fe 2f       	mov	r31, r30
    1c22:	29 d0       	rcall	.+82     	; 0x1c76 <__divsf3_pse+0x92>
    1c24:	66 0f       	add	r22, r22
    1c26:	77 1f       	adc	r23, r23
    1c28:	88 1f       	adc	r24, r24
    1c2a:	bb 1f       	adc	r27, r27
    1c2c:	26 17       	cp	r18, r22
    1c2e:	37 07       	cpc	r19, r23
    1c30:	48 07       	cpc	r20, r24
    1c32:	ab 07       	cpc	r26, r27
    1c34:	b0 e8       	ldi	r27, 0x80	; 128
    1c36:	09 f0       	breq	.+2      	; 0x1c3a <__divsf3_pse+0x56>
    1c38:	bb 0b       	sbc	r27, r27
    1c3a:	80 2d       	mov	r24, r0
    1c3c:	bf 01       	movw	r22, r30
    1c3e:	ff 27       	eor	r31, r31
    1c40:	93 58       	subi	r25, 0x83	; 131
    1c42:	5f 4f       	sbci	r21, 0xFF	; 255
    1c44:	3a f0       	brmi	.+14     	; 0x1c54 <__divsf3_pse+0x70>
    1c46:	9e 3f       	cpi	r25, 0xFE	; 254
    1c48:	51 05       	cpc	r21, r1
    1c4a:	78 f0       	brcs	.+30     	; 0x1c6a <__divsf3_pse+0x86>
    1c4c:	0c 94 ae 0e 	jmp	0x1d5c	; 0x1d5c <__fp_inf>
    1c50:	0c 94 f9 0e 	jmp	0x1df2	; 0x1df2 <__fp_szero>
    1c54:	5f 3f       	cpi	r21, 0xFF	; 255
    1c56:	e4 f3       	brlt	.-8      	; 0x1c50 <__divsf3_pse+0x6c>
    1c58:	98 3e       	cpi	r25, 0xE8	; 232
    1c5a:	d4 f3       	brlt	.-12     	; 0x1c50 <__divsf3_pse+0x6c>
    1c5c:	86 95       	lsr	r24
    1c5e:	77 95       	ror	r23
    1c60:	67 95       	ror	r22
    1c62:	b7 95       	ror	r27
    1c64:	f7 95       	ror	r31
    1c66:	9f 5f       	subi	r25, 0xFF	; 255
    1c68:	c9 f7       	brne	.-14     	; 0x1c5c <__divsf3_pse+0x78>
    1c6a:	88 0f       	add	r24, r24
    1c6c:	91 1d       	adc	r25, r1
    1c6e:	96 95       	lsr	r25
    1c70:	87 95       	ror	r24
    1c72:	97 f9       	bld	r25, 7
    1c74:	08 95       	ret
    1c76:	e1 e0       	ldi	r30, 0x01	; 1
    1c78:	66 0f       	add	r22, r22
    1c7a:	77 1f       	adc	r23, r23
    1c7c:	88 1f       	adc	r24, r24
    1c7e:	bb 1f       	adc	r27, r27
    1c80:	62 17       	cp	r22, r18
    1c82:	73 07       	cpc	r23, r19
    1c84:	84 07       	cpc	r24, r20
    1c86:	ba 07       	cpc	r27, r26
    1c88:	20 f0       	brcs	.+8      	; 0x1c92 <__divsf3_pse+0xae>
    1c8a:	62 1b       	sub	r22, r18
    1c8c:	73 0b       	sbc	r23, r19
    1c8e:	84 0b       	sbc	r24, r20
    1c90:	ba 0b       	sbc	r27, r26
    1c92:	ee 1f       	adc	r30, r30
    1c94:	88 f7       	brcc	.-30     	; 0x1c78 <__divsf3_pse+0x94>
    1c96:	e0 95       	com	r30
    1c98:	08 95       	ret

00001c9a <__floatunsisf>:
    1c9a:	e8 94       	clt
    1c9c:	09 c0       	rjmp	.+18     	; 0x1cb0 <__floatsisf+0x12>

00001c9e <__floatsisf>:
    1c9e:	97 fb       	bst	r25, 7
    1ca0:	3e f4       	brtc	.+14     	; 0x1cb0 <__floatsisf+0x12>
    1ca2:	90 95       	com	r25
    1ca4:	80 95       	com	r24
    1ca6:	70 95       	com	r23
    1ca8:	61 95       	neg	r22
    1caa:	7f 4f       	sbci	r23, 0xFF	; 255
    1cac:	8f 4f       	sbci	r24, 0xFF	; 255
    1cae:	9f 4f       	sbci	r25, 0xFF	; 255
    1cb0:	99 23       	and	r25, r25
    1cb2:	a9 f0       	breq	.+42     	; 0x1cde <__floatsisf+0x40>
    1cb4:	f9 2f       	mov	r31, r25
    1cb6:	96 e9       	ldi	r25, 0x96	; 150
    1cb8:	bb 27       	eor	r27, r27
    1cba:	93 95       	inc	r25
    1cbc:	f6 95       	lsr	r31
    1cbe:	87 95       	ror	r24
    1cc0:	77 95       	ror	r23
    1cc2:	67 95       	ror	r22
    1cc4:	b7 95       	ror	r27
    1cc6:	f1 11       	cpse	r31, r1
    1cc8:	f8 cf       	rjmp	.-16     	; 0x1cba <__floatsisf+0x1c>
    1cca:	fa f4       	brpl	.+62     	; 0x1d0a <__floatsisf+0x6c>
    1ccc:	bb 0f       	add	r27, r27
    1cce:	11 f4       	brne	.+4      	; 0x1cd4 <__floatsisf+0x36>
    1cd0:	60 ff       	sbrs	r22, 0
    1cd2:	1b c0       	rjmp	.+54     	; 0x1d0a <__floatsisf+0x6c>
    1cd4:	6f 5f       	subi	r22, 0xFF	; 255
    1cd6:	7f 4f       	sbci	r23, 0xFF	; 255
    1cd8:	8f 4f       	sbci	r24, 0xFF	; 255
    1cda:	9f 4f       	sbci	r25, 0xFF	; 255
    1cdc:	16 c0       	rjmp	.+44     	; 0x1d0a <__floatsisf+0x6c>
    1cde:	88 23       	and	r24, r24
    1ce0:	11 f0       	breq	.+4      	; 0x1ce6 <__floatsisf+0x48>
    1ce2:	96 e9       	ldi	r25, 0x96	; 150
    1ce4:	11 c0       	rjmp	.+34     	; 0x1d08 <__floatsisf+0x6a>
    1ce6:	77 23       	and	r23, r23
    1ce8:	21 f0       	breq	.+8      	; 0x1cf2 <__floatsisf+0x54>
    1cea:	9e e8       	ldi	r25, 0x8E	; 142
    1cec:	87 2f       	mov	r24, r23
    1cee:	76 2f       	mov	r23, r22
    1cf0:	05 c0       	rjmp	.+10     	; 0x1cfc <__floatsisf+0x5e>
    1cf2:	66 23       	and	r22, r22
    1cf4:	71 f0       	breq	.+28     	; 0x1d12 <__floatsisf+0x74>
    1cf6:	96 e8       	ldi	r25, 0x86	; 134
    1cf8:	86 2f       	mov	r24, r22
    1cfa:	70 e0       	ldi	r23, 0x00	; 0
    1cfc:	60 e0       	ldi	r22, 0x00	; 0
    1cfe:	2a f0       	brmi	.+10     	; 0x1d0a <__floatsisf+0x6c>
    1d00:	9a 95       	dec	r25
    1d02:	66 0f       	add	r22, r22
    1d04:	77 1f       	adc	r23, r23
    1d06:	88 1f       	adc	r24, r24
    1d08:	da f7       	brpl	.-10     	; 0x1d00 <__floatsisf+0x62>
    1d0a:	88 0f       	add	r24, r24
    1d0c:	96 95       	lsr	r25
    1d0e:	87 95       	ror	r24
    1d10:	97 f9       	bld	r25, 7
    1d12:	08 95       	ret

00001d14 <__fp_cmp>:
    1d14:	99 0f       	add	r25, r25
    1d16:	00 08       	sbc	r0, r0
    1d18:	55 0f       	add	r21, r21
    1d1a:	aa 0b       	sbc	r26, r26
    1d1c:	e0 e8       	ldi	r30, 0x80	; 128
    1d1e:	fe ef       	ldi	r31, 0xFE	; 254
    1d20:	16 16       	cp	r1, r22
    1d22:	17 06       	cpc	r1, r23
    1d24:	e8 07       	cpc	r30, r24
    1d26:	f9 07       	cpc	r31, r25
    1d28:	c0 f0       	brcs	.+48     	; 0x1d5a <__fp_cmp+0x46>
    1d2a:	12 16       	cp	r1, r18
    1d2c:	13 06       	cpc	r1, r19
    1d2e:	e4 07       	cpc	r30, r20
    1d30:	f5 07       	cpc	r31, r21
    1d32:	98 f0       	brcs	.+38     	; 0x1d5a <__fp_cmp+0x46>
    1d34:	62 1b       	sub	r22, r18
    1d36:	73 0b       	sbc	r23, r19
    1d38:	84 0b       	sbc	r24, r20
    1d3a:	95 0b       	sbc	r25, r21
    1d3c:	39 f4       	brne	.+14     	; 0x1d4c <__fp_cmp+0x38>
    1d3e:	0a 26       	eor	r0, r26
    1d40:	61 f0       	breq	.+24     	; 0x1d5a <__fp_cmp+0x46>
    1d42:	23 2b       	or	r18, r19
    1d44:	24 2b       	or	r18, r20
    1d46:	25 2b       	or	r18, r21
    1d48:	21 f4       	brne	.+8      	; 0x1d52 <__fp_cmp+0x3e>
    1d4a:	08 95       	ret
    1d4c:	0a 26       	eor	r0, r26
    1d4e:	09 f4       	brne	.+2      	; 0x1d52 <__fp_cmp+0x3e>
    1d50:	a1 40       	sbci	r26, 0x01	; 1
    1d52:	a6 95       	lsr	r26
    1d54:	8f ef       	ldi	r24, 0xFF	; 255
    1d56:	81 1d       	adc	r24, r1
    1d58:	81 1d       	adc	r24, r1
    1d5a:	08 95       	ret

00001d5c <__fp_inf>:
    1d5c:	97 f9       	bld	r25, 7
    1d5e:	9f 67       	ori	r25, 0x7F	; 127
    1d60:	80 e8       	ldi	r24, 0x80	; 128
    1d62:	70 e0       	ldi	r23, 0x00	; 0
    1d64:	60 e0       	ldi	r22, 0x00	; 0
    1d66:	08 95       	ret

00001d68 <__fp_nan>:
    1d68:	9f ef       	ldi	r25, 0xFF	; 255
    1d6a:	80 ec       	ldi	r24, 0xC0	; 192
    1d6c:	08 95       	ret

00001d6e <__fp_pscA>:
    1d6e:	00 24       	eor	r0, r0
    1d70:	0a 94       	dec	r0
    1d72:	16 16       	cp	r1, r22
    1d74:	17 06       	cpc	r1, r23
    1d76:	18 06       	cpc	r1, r24
    1d78:	09 06       	cpc	r0, r25
    1d7a:	08 95       	ret

00001d7c <__fp_pscB>:
    1d7c:	00 24       	eor	r0, r0
    1d7e:	0a 94       	dec	r0
    1d80:	12 16       	cp	r1, r18
    1d82:	13 06       	cpc	r1, r19
    1d84:	14 06       	cpc	r1, r20
    1d86:	05 06       	cpc	r0, r21
    1d88:	08 95       	ret

00001d8a <__fp_round>:
    1d8a:	09 2e       	mov	r0, r25
    1d8c:	03 94       	inc	r0
    1d8e:	00 0c       	add	r0, r0
    1d90:	11 f4       	brne	.+4      	; 0x1d96 <__fp_round+0xc>
    1d92:	88 23       	and	r24, r24
    1d94:	52 f0       	brmi	.+20     	; 0x1daa <__fp_round+0x20>
    1d96:	bb 0f       	add	r27, r27
    1d98:	40 f4       	brcc	.+16     	; 0x1daa <__fp_round+0x20>
    1d9a:	bf 2b       	or	r27, r31
    1d9c:	11 f4       	brne	.+4      	; 0x1da2 <__fp_round+0x18>
    1d9e:	60 ff       	sbrs	r22, 0
    1da0:	04 c0       	rjmp	.+8      	; 0x1daa <__fp_round+0x20>
    1da2:	6f 5f       	subi	r22, 0xFF	; 255
    1da4:	7f 4f       	sbci	r23, 0xFF	; 255
    1da6:	8f 4f       	sbci	r24, 0xFF	; 255
    1da8:	9f 4f       	sbci	r25, 0xFF	; 255
    1daa:	08 95       	ret

00001dac <__fp_split3>:
    1dac:	57 fd       	sbrc	r21, 7
    1dae:	90 58       	subi	r25, 0x80	; 128
    1db0:	44 0f       	add	r20, r20
    1db2:	55 1f       	adc	r21, r21
    1db4:	59 f0       	breq	.+22     	; 0x1dcc <__fp_splitA+0x10>
    1db6:	5f 3f       	cpi	r21, 0xFF	; 255
    1db8:	71 f0       	breq	.+28     	; 0x1dd6 <__fp_splitA+0x1a>
    1dba:	47 95       	ror	r20

00001dbc <__fp_splitA>:
    1dbc:	88 0f       	add	r24, r24
    1dbe:	97 fb       	bst	r25, 7
    1dc0:	99 1f       	adc	r25, r25
    1dc2:	61 f0       	breq	.+24     	; 0x1ddc <__fp_splitA+0x20>
    1dc4:	9f 3f       	cpi	r25, 0xFF	; 255
    1dc6:	79 f0       	breq	.+30     	; 0x1de6 <__fp_splitA+0x2a>
    1dc8:	87 95       	ror	r24
    1dca:	08 95       	ret
    1dcc:	12 16       	cp	r1, r18
    1dce:	13 06       	cpc	r1, r19
    1dd0:	14 06       	cpc	r1, r20
    1dd2:	55 1f       	adc	r21, r21
    1dd4:	f2 cf       	rjmp	.-28     	; 0x1dba <__fp_split3+0xe>
    1dd6:	46 95       	lsr	r20
    1dd8:	f1 df       	rcall	.-30     	; 0x1dbc <__fp_splitA>
    1dda:	08 c0       	rjmp	.+16     	; 0x1dec <__fp_splitA+0x30>
    1ddc:	16 16       	cp	r1, r22
    1dde:	17 06       	cpc	r1, r23
    1de0:	18 06       	cpc	r1, r24
    1de2:	99 1f       	adc	r25, r25
    1de4:	f1 cf       	rjmp	.-30     	; 0x1dc8 <__fp_splitA+0xc>
    1de6:	86 95       	lsr	r24
    1de8:	71 05       	cpc	r23, r1
    1dea:	61 05       	cpc	r22, r1
    1dec:	08 94       	sec
    1dee:	08 95       	ret

00001df0 <__fp_zero>:
    1df0:	e8 94       	clt

00001df2 <__fp_szero>:
    1df2:	bb 27       	eor	r27, r27
    1df4:	66 27       	eor	r22, r22
    1df6:	77 27       	eor	r23, r23
    1df8:	cb 01       	movw	r24, r22
    1dfa:	97 f9       	bld	r25, 7
    1dfc:	08 95       	ret

00001dfe <__gesf2>:
    1dfe:	0e 94 8a 0e 	call	0x1d14	; 0x1d14 <__fp_cmp>
    1e02:	08 f4       	brcc	.+2      	; 0x1e06 <__gesf2+0x8>
    1e04:	8f ef       	ldi	r24, 0xFF	; 255
    1e06:	08 95       	ret

00001e08 <__mulsf3>:
    1e08:	0e 94 17 0f 	call	0x1e2e	; 0x1e2e <__mulsf3x>
    1e0c:	0c 94 c5 0e 	jmp	0x1d8a	; 0x1d8a <__fp_round>
    1e10:	0e 94 b7 0e 	call	0x1d6e	; 0x1d6e <__fp_pscA>
    1e14:	38 f0       	brcs	.+14     	; 0x1e24 <__mulsf3+0x1c>
    1e16:	0e 94 be 0e 	call	0x1d7c	; 0x1d7c <__fp_pscB>
    1e1a:	20 f0       	brcs	.+8      	; 0x1e24 <__mulsf3+0x1c>
    1e1c:	95 23       	and	r25, r21
    1e1e:	11 f0       	breq	.+4      	; 0x1e24 <__mulsf3+0x1c>
    1e20:	0c 94 ae 0e 	jmp	0x1d5c	; 0x1d5c <__fp_inf>
    1e24:	0c 94 b4 0e 	jmp	0x1d68	; 0x1d68 <__fp_nan>
    1e28:	11 24       	eor	r1, r1
    1e2a:	0c 94 f9 0e 	jmp	0x1df2	; 0x1df2 <__fp_szero>

00001e2e <__mulsf3x>:
    1e2e:	0e 94 d6 0e 	call	0x1dac	; 0x1dac <__fp_split3>
    1e32:	70 f3       	brcs	.-36     	; 0x1e10 <__mulsf3+0x8>

00001e34 <__mulsf3_pse>:
    1e34:	95 9f       	mul	r25, r21
    1e36:	c1 f3       	breq	.-16     	; 0x1e28 <__mulsf3+0x20>
    1e38:	95 0f       	add	r25, r21
    1e3a:	50 e0       	ldi	r21, 0x00	; 0
    1e3c:	55 1f       	adc	r21, r21
    1e3e:	62 9f       	mul	r22, r18
    1e40:	f0 01       	movw	r30, r0
    1e42:	72 9f       	mul	r23, r18
    1e44:	bb 27       	eor	r27, r27
    1e46:	f0 0d       	add	r31, r0
    1e48:	b1 1d       	adc	r27, r1
    1e4a:	63 9f       	mul	r22, r19
    1e4c:	aa 27       	eor	r26, r26
    1e4e:	f0 0d       	add	r31, r0
    1e50:	b1 1d       	adc	r27, r1
    1e52:	aa 1f       	adc	r26, r26
    1e54:	64 9f       	mul	r22, r20
    1e56:	66 27       	eor	r22, r22
    1e58:	b0 0d       	add	r27, r0
    1e5a:	a1 1d       	adc	r26, r1
    1e5c:	66 1f       	adc	r22, r22
    1e5e:	82 9f       	mul	r24, r18
    1e60:	22 27       	eor	r18, r18
    1e62:	b0 0d       	add	r27, r0
    1e64:	a1 1d       	adc	r26, r1
    1e66:	62 1f       	adc	r22, r18
    1e68:	73 9f       	mul	r23, r19
    1e6a:	b0 0d       	add	r27, r0
    1e6c:	a1 1d       	adc	r26, r1
    1e6e:	62 1f       	adc	r22, r18
    1e70:	83 9f       	mul	r24, r19
    1e72:	a0 0d       	add	r26, r0
    1e74:	61 1d       	adc	r22, r1
    1e76:	22 1f       	adc	r18, r18
    1e78:	74 9f       	mul	r23, r20
    1e7a:	33 27       	eor	r19, r19
    1e7c:	a0 0d       	add	r26, r0
    1e7e:	61 1d       	adc	r22, r1
    1e80:	23 1f       	adc	r18, r19
    1e82:	84 9f       	mul	r24, r20
    1e84:	60 0d       	add	r22, r0
    1e86:	21 1d       	adc	r18, r1
    1e88:	82 2f       	mov	r24, r18
    1e8a:	76 2f       	mov	r23, r22
    1e8c:	6a 2f       	mov	r22, r26
    1e8e:	11 24       	eor	r1, r1
    1e90:	9f 57       	subi	r25, 0x7F	; 127
    1e92:	50 40       	sbci	r21, 0x00	; 0
    1e94:	9a f0       	brmi	.+38     	; 0x1ebc <__mulsf3_pse+0x88>
    1e96:	f1 f0       	breq	.+60     	; 0x1ed4 <__mulsf3_pse+0xa0>
    1e98:	88 23       	and	r24, r24
    1e9a:	4a f0       	brmi	.+18     	; 0x1eae <__mulsf3_pse+0x7a>
    1e9c:	ee 0f       	add	r30, r30
    1e9e:	ff 1f       	adc	r31, r31
    1ea0:	bb 1f       	adc	r27, r27
    1ea2:	66 1f       	adc	r22, r22
    1ea4:	77 1f       	adc	r23, r23
    1ea6:	88 1f       	adc	r24, r24
    1ea8:	91 50       	subi	r25, 0x01	; 1
    1eaa:	50 40       	sbci	r21, 0x00	; 0
    1eac:	a9 f7       	brne	.-22     	; 0x1e98 <__mulsf3_pse+0x64>
    1eae:	9e 3f       	cpi	r25, 0xFE	; 254
    1eb0:	51 05       	cpc	r21, r1
    1eb2:	80 f0       	brcs	.+32     	; 0x1ed4 <__mulsf3_pse+0xa0>
    1eb4:	0c 94 ae 0e 	jmp	0x1d5c	; 0x1d5c <__fp_inf>
    1eb8:	0c 94 f9 0e 	jmp	0x1df2	; 0x1df2 <__fp_szero>
    1ebc:	5f 3f       	cpi	r21, 0xFF	; 255
    1ebe:	e4 f3       	brlt	.-8      	; 0x1eb8 <__mulsf3_pse+0x84>
    1ec0:	98 3e       	cpi	r25, 0xE8	; 232
    1ec2:	d4 f3       	brlt	.-12     	; 0x1eb8 <__mulsf3_pse+0x84>
    1ec4:	86 95       	lsr	r24
    1ec6:	77 95       	ror	r23
    1ec8:	67 95       	ror	r22
    1eca:	b7 95       	ror	r27
    1ecc:	f7 95       	ror	r31
    1ece:	e7 95       	ror	r30
    1ed0:	9f 5f       	subi	r25, 0xFF	; 255
    1ed2:	c1 f7       	brne	.-16     	; 0x1ec4 <__mulsf3_pse+0x90>
    1ed4:	fe 2b       	or	r31, r30
    1ed6:	88 0f       	add	r24, r24
    1ed8:	91 1d       	adc	r25, r1
    1eda:	96 95       	lsr	r25
    1edc:	87 95       	ror	r24
    1ede:	97 f9       	bld	r25, 7
    1ee0:	08 95       	ret

00001ee2 <__ftoa_engine>:
    1ee2:	28 30       	cpi	r18, 0x08	; 8
    1ee4:	08 f0       	brcs	.+2      	; 0x1ee8 <__ftoa_engine+0x6>
    1ee6:	27 e0       	ldi	r18, 0x07	; 7
    1ee8:	33 27       	eor	r19, r19
    1eea:	da 01       	movw	r26, r20
    1eec:	99 0f       	add	r25, r25
    1eee:	31 1d       	adc	r19, r1
    1ef0:	87 fd       	sbrc	r24, 7
    1ef2:	91 60       	ori	r25, 0x01	; 1
    1ef4:	00 96       	adiw	r24, 0x00	; 0
    1ef6:	61 05       	cpc	r22, r1
    1ef8:	71 05       	cpc	r23, r1
    1efa:	39 f4       	brne	.+14     	; 0x1f0a <__ftoa_engine+0x28>
    1efc:	32 60       	ori	r19, 0x02	; 2
    1efe:	2e 5f       	subi	r18, 0xFE	; 254
    1f00:	3d 93       	st	X+, r19
    1f02:	30 e3       	ldi	r19, 0x30	; 48
    1f04:	2a 95       	dec	r18
    1f06:	e1 f7       	brne	.-8      	; 0x1f00 <__ftoa_engine+0x1e>
    1f08:	08 95       	ret
    1f0a:	9f 3f       	cpi	r25, 0xFF	; 255
    1f0c:	30 f0       	brcs	.+12     	; 0x1f1a <__ftoa_engine+0x38>
    1f0e:	80 38       	cpi	r24, 0x80	; 128
    1f10:	71 05       	cpc	r23, r1
    1f12:	61 05       	cpc	r22, r1
    1f14:	09 f0       	breq	.+2      	; 0x1f18 <__ftoa_engine+0x36>
    1f16:	3c 5f       	subi	r19, 0xFC	; 252
    1f18:	3c 5f       	subi	r19, 0xFC	; 252
    1f1a:	3d 93       	st	X+, r19
    1f1c:	91 30       	cpi	r25, 0x01	; 1
    1f1e:	08 f0       	brcs	.+2      	; 0x1f22 <__ftoa_engine+0x40>
    1f20:	80 68       	ori	r24, 0x80	; 128
    1f22:	91 1d       	adc	r25, r1
    1f24:	df 93       	push	r29
    1f26:	cf 93       	push	r28
    1f28:	1f 93       	push	r17
    1f2a:	0f 93       	push	r16
    1f2c:	ff 92       	push	r15
    1f2e:	ef 92       	push	r14
    1f30:	19 2f       	mov	r17, r25
    1f32:	98 7f       	andi	r25, 0xF8	; 248
    1f34:	96 95       	lsr	r25
    1f36:	e9 2f       	mov	r30, r25
    1f38:	96 95       	lsr	r25
    1f3a:	96 95       	lsr	r25
    1f3c:	e9 0f       	add	r30, r25
    1f3e:	ff 27       	eor	r31, r31
    1f40:	e6 53       	subi	r30, 0x36	; 54
    1f42:	ff 4f       	sbci	r31, 0xFF	; 255
    1f44:	99 27       	eor	r25, r25
    1f46:	33 27       	eor	r19, r19
    1f48:	ee 24       	eor	r14, r14
    1f4a:	ff 24       	eor	r15, r15
    1f4c:	a7 01       	movw	r20, r14
    1f4e:	e7 01       	movw	r28, r14
    1f50:	05 90       	lpm	r0, Z+
    1f52:	08 94       	sec
    1f54:	07 94       	ror	r0
    1f56:	28 f4       	brcc	.+10     	; 0x1f62 <__ftoa_engine+0x80>
    1f58:	36 0f       	add	r19, r22
    1f5a:	e7 1e       	adc	r14, r23
    1f5c:	f8 1e       	adc	r15, r24
    1f5e:	49 1f       	adc	r20, r25
    1f60:	51 1d       	adc	r21, r1
    1f62:	66 0f       	add	r22, r22
    1f64:	77 1f       	adc	r23, r23
    1f66:	88 1f       	adc	r24, r24
    1f68:	99 1f       	adc	r25, r25
    1f6a:	06 94       	lsr	r0
    1f6c:	a1 f7       	brne	.-24     	; 0x1f56 <__ftoa_engine+0x74>
    1f6e:	05 90       	lpm	r0, Z+
    1f70:	07 94       	ror	r0
    1f72:	28 f4       	brcc	.+10     	; 0x1f7e <__ftoa_engine+0x9c>
    1f74:	e7 0e       	add	r14, r23
    1f76:	f8 1e       	adc	r15, r24
    1f78:	49 1f       	adc	r20, r25
    1f7a:	56 1f       	adc	r21, r22
    1f7c:	c1 1d       	adc	r28, r1
    1f7e:	77 0f       	add	r23, r23
    1f80:	88 1f       	adc	r24, r24
    1f82:	99 1f       	adc	r25, r25
    1f84:	66 1f       	adc	r22, r22
    1f86:	06 94       	lsr	r0
    1f88:	a1 f7       	brne	.-24     	; 0x1f72 <__ftoa_engine+0x90>
    1f8a:	05 90       	lpm	r0, Z+
    1f8c:	07 94       	ror	r0
    1f8e:	28 f4       	brcc	.+10     	; 0x1f9a <__ftoa_engine+0xb8>
    1f90:	f8 0e       	add	r15, r24
    1f92:	49 1f       	adc	r20, r25
    1f94:	56 1f       	adc	r21, r22
    1f96:	c7 1f       	adc	r28, r23
    1f98:	d1 1d       	adc	r29, r1
    1f9a:	88 0f       	add	r24, r24
    1f9c:	99 1f       	adc	r25, r25
    1f9e:	66 1f       	adc	r22, r22
    1fa0:	77 1f       	adc	r23, r23
    1fa2:	06 94       	lsr	r0
    1fa4:	a1 f7       	brne	.-24     	; 0x1f8e <__ftoa_engine+0xac>
    1fa6:	05 90       	lpm	r0, Z+
    1fa8:	07 94       	ror	r0
    1faa:	20 f4       	brcc	.+8      	; 0x1fb4 <__ftoa_engine+0xd2>
    1fac:	49 0f       	add	r20, r25
    1fae:	56 1f       	adc	r21, r22
    1fb0:	c7 1f       	adc	r28, r23
    1fb2:	d8 1f       	adc	r29, r24
    1fb4:	99 0f       	add	r25, r25
    1fb6:	66 1f       	adc	r22, r22
    1fb8:	77 1f       	adc	r23, r23
    1fba:	88 1f       	adc	r24, r24
    1fbc:	06 94       	lsr	r0
    1fbe:	a9 f7       	brne	.-22     	; 0x1faa <__ftoa_engine+0xc8>
    1fc0:	84 91       	lpm	r24, Z
    1fc2:	10 95       	com	r17
    1fc4:	17 70       	andi	r17, 0x07	; 7
    1fc6:	41 f0       	breq	.+16     	; 0x1fd8 <__ftoa_engine+0xf6>
    1fc8:	d6 95       	lsr	r29
    1fca:	c7 95       	ror	r28
    1fcc:	57 95       	ror	r21
    1fce:	47 95       	ror	r20
    1fd0:	f7 94       	ror	r15
    1fd2:	e7 94       	ror	r14
    1fd4:	1a 95       	dec	r17
    1fd6:	c1 f7       	brne	.-16     	; 0x1fc8 <__ftoa_engine+0xe6>
    1fd8:	e0 e7       	ldi	r30, 0x70	; 112
    1fda:	f0 e0       	ldi	r31, 0x00	; 0
    1fdc:	68 94       	set
    1fde:	15 90       	lpm	r1, Z+
    1fe0:	15 91       	lpm	r17, Z+
    1fe2:	35 91       	lpm	r19, Z+
    1fe4:	65 91       	lpm	r22, Z+
    1fe6:	95 91       	lpm	r25, Z+
    1fe8:	05 90       	lpm	r0, Z+
    1fea:	7f e2       	ldi	r23, 0x2F	; 47
    1fec:	73 95       	inc	r23
    1fee:	e1 18       	sub	r14, r1
    1ff0:	f1 0a       	sbc	r15, r17
    1ff2:	43 0b       	sbc	r20, r19
    1ff4:	56 0b       	sbc	r21, r22
    1ff6:	c9 0b       	sbc	r28, r25
    1ff8:	d0 09       	sbc	r29, r0
    1ffa:	c0 f7       	brcc	.-16     	; 0x1fec <__ftoa_engine+0x10a>
    1ffc:	e1 0c       	add	r14, r1
    1ffe:	f1 1e       	adc	r15, r17
    2000:	43 1f       	adc	r20, r19
    2002:	56 1f       	adc	r21, r22
    2004:	c9 1f       	adc	r28, r25
    2006:	d0 1d       	adc	r29, r0
    2008:	7e f4       	brtc	.+30     	; 0x2028 <__ftoa_engine+0x146>
    200a:	70 33       	cpi	r23, 0x30	; 48
    200c:	11 f4       	brne	.+4      	; 0x2012 <__ftoa_engine+0x130>
    200e:	8a 95       	dec	r24
    2010:	e6 cf       	rjmp	.-52     	; 0x1fde <__ftoa_engine+0xfc>
    2012:	e8 94       	clt
    2014:	01 50       	subi	r16, 0x01	; 1
    2016:	30 f0       	brcs	.+12     	; 0x2024 <__ftoa_engine+0x142>
    2018:	08 0f       	add	r16, r24
    201a:	0a f4       	brpl	.+2      	; 0x201e <__ftoa_engine+0x13c>
    201c:	00 27       	eor	r16, r16
    201e:	02 17       	cp	r16, r18
    2020:	08 f4       	brcc	.+2      	; 0x2024 <__ftoa_engine+0x142>
    2022:	20 2f       	mov	r18, r16
    2024:	23 95       	inc	r18
    2026:	02 2f       	mov	r16, r18
    2028:	7a 33       	cpi	r23, 0x3A	; 58
    202a:	28 f0       	brcs	.+10     	; 0x2036 <__ftoa_engine+0x154>
    202c:	79 e3       	ldi	r23, 0x39	; 57
    202e:	7d 93       	st	X+, r23
    2030:	2a 95       	dec	r18
    2032:	e9 f7       	brne	.-6      	; 0x202e <__ftoa_engine+0x14c>
    2034:	10 c0       	rjmp	.+32     	; 0x2056 <__ftoa_engine+0x174>
    2036:	7d 93       	st	X+, r23
    2038:	2a 95       	dec	r18
    203a:	89 f6       	brne	.-94     	; 0x1fde <__ftoa_engine+0xfc>
    203c:	06 94       	lsr	r0
    203e:	97 95       	ror	r25
    2040:	67 95       	ror	r22
    2042:	37 95       	ror	r19
    2044:	17 95       	ror	r17
    2046:	17 94       	ror	r1
    2048:	e1 18       	sub	r14, r1
    204a:	f1 0a       	sbc	r15, r17
    204c:	43 0b       	sbc	r20, r19
    204e:	56 0b       	sbc	r21, r22
    2050:	c9 0b       	sbc	r28, r25
    2052:	d0 09       	sbc	r29, r0
    2054:	98 f0       	brcs	.+38     	; 0x207c <__ftoa_engine+0x19a>
    2056:	23 95       	inc	r18
    2058:	7e 91       	ld	r23, -X
    205a:	73 95       	inc	r23
    205c:	7a 33       	cpi	r23, 0x3A	; 58
    205e:	08 f0       	brcs	.+2      	; 0x2062 <__ftoa_engine+0x180>
    2060:	70 e3       	ldi	r23, 0x30	; 48
    2062:	7c 93       	st	X, r23
    2064:	20 13       	cpse	r18, r16
    2066:	b8 f7       	brcc	.-18     	; 0x2056 <__ftoa_engine+0x174>
    2068:	7e 91       	ld	r23, -X
    206a:	70 61       	ori	r23, 0x10	; 16
    206c:	7d 93       	st	X+, r23
    206e:	30 f0       	brcs	.+12     	; 0x207c <__ftoa_engine+0x19a>
    2070:	83 95       	inc	r24
    2072:	71 e3       	ldi	r23, 0x31	; 49
    2074:	7d 93       	st	X+, r23
    2076:	70 e3       	ldi	r23, 0x30	; 48
    2078:	2a 95       	dec	r18
    207a:	e1 f7       	brne	.-8      	; 0x2074 <__ftoa_engine+0x192>
    207c:	11 24       	eor	r1, r1
    207e:	ef 90       	pop	r14
    2080:	ff 90       	pop	r15
    2082:	0f 91       	pop	r16
    2084:	1f 91       	pop	r17
    2086:	cf 91       	pop	r28
    2088:	df 91       	pop	r29
    208a:	99 27       	eor	r25, r25
    208c:	87 fd       	sbrc	r24, 7
    208e:	90 95       	com	r25
    2090:	08 95       	ret

00002092 <strnlen_P>:
    2092:	fc 01       	movw	r30, r24
    2094:	05 90       	lpm	r0, Z+
    2096:	61 50       	subi	r22, 0x01	; 1
    2098:	70 40       	sbci	r23, 0x00	; 0
    209a:	01 10       	cpse	r0, r1
    209c:	d8 f7       	brcc	.-10     	; 0x2094 <strnlen_P+0x2>
    209e:	80 95       	com	r24
    20a0:	90 95       	com	r25
    20a2:	8e 0f       	add	r24, r30
    20a4:	9f 1f       	adc	r25, r31
    20a6:	08 95       	ret

000020a8 <strnlen>:
    20a8:	fc 01       	movw	r30, r24
    20aa:	61 50       	subi	r22, 0x01	; 1
    20ac:	70 40       	sbci	r23, 0x00	; 0
    20ae:	01 90       	ld	r0, Z+
    20b0:	01 10       	cpse	r0, r1
    20b2:	d8 f7       	brcc	.-10     	; 0x20aa <strnlen+0x2>
    20b4:	80 95       	com	r24
    20b6:	90 95       	com	r25
    20b8:	8e 0f       	add	r24, r30
    20ba:	9f 1f       	adc	r25, r31
    20bc:	08 95       	ret

000020be <fputc>:
    20be:	0f 93       	push	r16
    20c0:	1f 93       	push	r17
    20c2:	cf 93       	push	r28
    20c4:	df 93       	push	r29
    20c6:	fb 01       	movw	r30, r22
    20c8:	23 81       	ldd	r18, Z+3	; 0x03
    20ca:	21 fd       	sbrc	r18, 1
    20cc:	03 c0       	rjmp	.+6      	; 0x20d4 <fputc+0x16>
    20ce:	8f ef       	ldi	r24, 0xFF	; 255
    20d0:	9f ef       	ldi	r25, 0xFF	; 255
    20d2:	2c c0       	rjmp	.+88     	; 0x212c <fputc+0x6e>
    20d4:	22 ff       	sbrs	r18, 2
    20d6:	16 c0       	rjmp	.+44     	; 0x2104 <fputc+0x46>
    20d8:	46 81       	ldd	r20, Z+6	; 0x06
    20da:	57 81       	ldd	r21, Z+7	; 0x07
    20dc:	24 81       	ldd	r18, Z+4	; 0x04
    20de:	35 81       	ldd	r19, Z+5	; 0x05
    20e0:	42 17       	cp	r20, r18
    20e2:	53 07       	cpc	r21, r19
    20e4:	44 f4       	brge	.+16     	; 0x20f6 <fputc+0x38>
    20e6:	a0 81       	ld	r26, Z
    20e8:	b1 81       	ldd	r27, Z+1	; 0x01
    20ea:	9d 01       	movw	r18, r26
    20ec:	2f 5f       	subi	r18, 0xFF	; 255
    20ee:	3f 4f       	sbci	r19, 0xFF	; 255
    20f0:	31 83       	std	Z+1, r19	; 0x01
    20f2:	20 83       	st	Z, r18
    20f4:	8c 93       	st	X, r24
    20f6:	26 81       	ldd	r18, Z+6	; 0x06
    20f8:	37 81       	ldd	r19, Z+7	; 0x07
    20fa:	2f 5f       	subi	r18, 0xFF	; 255
    20fc:	3f 4f       	sbci	r19, 0xFF	; 255
    20fe:	37 83       	std	Z+7, r19	; 0x07
    2100:	26 83       	std	Z+6, r18	; 0x06
    2102:	14 c0       	rjmp	.+40     	; 0x212c <fputc+0x6e>
    2104:	8b 01       	movw	r16, r22
    2106:	ec 01       	movw	r28, r24
    2108:	fb 01       	movw	r30, r22
    210a:	00 84       	ldd	r0, Z+8	; 0x08
    210c:	f1 85       	ldd	r31, Z+9	; 0x09
    210e:	e0 2d       	mov	r30, r0
    2110:	09 95       	icall
    2112:	89 2b       	or	r24, r25
    2114:	e1 f6       	brne	.-72     	; 0x20ce <fputc+0x10>
    2116:	d8 01       	movw	r26, r16
    2118:	16 96       	adiw	r26, 0x06	; 6
    211a:	8d 91       	ld	r24, X+
    211c:	9c 91       	ld	r25, X
    211e:	17 97       	sbiw	r26, 0x07	; 7
    2120:	01 96       	adiw	r24, 0x01	; 1
    2122:	17 96       	adiw	r26, 0x07	; 7
    2124:	9c 93       	st	X, r25
    2126:	8e 93       	st	-X, r24
    2128:	16 97       	sbiw	r26, 0x06	; 6
    212a:	ce 01       	movw	r24, r28
    212c:	df 91       	pop	r29
    212e:	cf 91       	pop	r28
    2130:	1f 91       	pop	r17
    2132:	0f 91       	pop	r16
    2134:	08 95       	ret

00002136 <sprintf>:
    2136:	ae e0       	ldi	r26, 0x0E	; 14
    2138:	b0 e0       	ldi	r27, 0x00	; 0
    213a:	e1 ea       	ldi	r30, 0xA1	; 161
    213c:	f0 e1       	ldi	r31, 0x10	; 16
    213e:	0c 94 40 0d 	jmp	0x1a80	; 0x1a80 <__prologue_saves__+0x1c>
    2142:	0d 89       	ldd	r16, Y+21	; 0x15
    2144:	1e 89       	ldd	r17, Y+22	; 0x16
    2146:	86 e0       	ldi	r24, 0x06	; 6
    2148:	8c 83       	std	Y+4, r24	; 0x04
    214a:	1a 83       	std	Y+2, r17	; 0x02
    214c:	09 83       	std	Y+1, r16	; 0x01
    214e:	8f ef       	ldi	r24, 0xFF	; 255
    2150:	9f e7       	ldi	r25, 0x7F	; 127
    2152:	9e 83       	std	Y+6, r25	; 0x06
    2154:	8d 83       	std	Y+5, r24	; 0x05
    2156:	ae 01       	movw	r20, r28
    2158:	47 5e       	subi	r20, 0xE7	; 231
    215a:	5f 4f       	sbci	r21, 0xFF	; 255
    215c:	6f 89       	ldd	r22, Y+23	; 0x17
    215e:	78 8d       	ldd	r23, Y+24	; 0x18
    2160:	ce 01       	movw	r24, r28
    2162:	01 96       	adiw	r24, 0x01	; 1
    2164:	0e 94 b5 09 	call	0x136a	; 0x136a <vfprintf>
    2168:	ef 81       	ldd	r30, Y+7	; 0x07
    216a:	f8 85       	ldd	r31, Y+8	; 0x08
    216c:	e0 0f       	add	r30, r16
    216e:	f1 1f       	adc	r31, r17
    2170:	10 82       	st	Z, r1
    2172:	2e 96       	adiw	r28, 0x0e	; 14
    2174:	e4 e0       	ldi	r30, 0x04	; 4
    2176:	0c 94 5c 0d 	jmp	0x1ab8	; 0x1ab8 <__epilogue_restores__+0x1c>

0000217a <sprintf_P>:
    217a:	ae e0       	ldi	r26, 0x0E	; 14
    217c:	b0 e0       	ldi	r27, 0x00	; 0
    217e:	e3 ec       	ldi	r30, 0xC3	; 195
    2180:	f0 e1       	ldi	r31, 0x10	; 16
    2182:	0c 94 40 0d 	jmp	0x1a80	; 0x1a80 <__prologue_saves__+0x1c>
    2186:	0d 89       	ldd	r16, Y+21	; 0x15
    2188:	1e 89       	ldd	r17, Y+22	; 0x16
    218a:	8e e0       	ldi	r24, 0x0E	; 14
    218c:	8c 83       	std	Y+4, r24	; 0x04
    218e:	1a 83       	std	Y+2, r17	; 0x02
    2190:	09 83       	std	Y+1, r16	; 0x01
    2192:	8f ef       	ldi	r24, 0xFF	; 255
    2194:	9f e7       	ldi	r25, 0x7F	; 127
    2196:	9e 83       	std	Y+6, r25	; 0x06
    2198:	8d 83       	std	Y+5, r24	; 0x05
    219a:	ae 01       	movw	r20, r28
    219c:	47 5e       	subi	r20, 0xE7	; 231
    219e:	5f 4f       	sbci	r21, 0xFF	; 255
    21a0:	6f 89       	ldd	r22, Y+23	; 0x17
    21a2:	78 8d       	ldd	r23, Y+24	; 0x18
    21a4:	ce 01       	movw	r24, r28
    21a6:	01 96       	adiw	r24, 0x01	; 1
    21a8:	0e 94 b5 09 	call	0x136a	; 0x136a <vfprintf>
    21ac:	ef 81       	ldd	r30, Y+7	; 0x07
    21ae:	f8 85       	ldd	r31, Y+8	; 0x08
    21b0:	e0 0f       	add	r30, r16
    21b2:	f1 1f       	adc	r31, r17
    21b4:	10 82       	st	Z, r1
    21b6:	2e 96       	adiw	r28, 0x0e	; 14
    21b8:	e4 e0       	ldi	r30, 0x04	; 4
    21ba:	0c 94 5c 0d 	jmp	0x1ab8	; 0x1ab8 <__epilogue_restores__+0x1c>

000021be <__ultoa_invert>:
    21be:	fa 01       	movw	r30, r20
    21c0:	aa 27       	eor	r26, r26
    21c2:	28 30       	cpi	r18, 0x08	; 8
    21c4:	51 f1       	breq	.+84     	; 0x221a <__ultoa_invert+0x5c>
    21c6:	20 31       	cpi	r18, 0x10	; 16
    21c8:	81 f1       	breq	.+96     	; 0x222a <__ultoa_invert+0x6c>
    21ca:	e8 94       	clt
    21cc:	6f 93       	push	r22
    21ce:	6e 7f       	andi	r22, 0xFE	; 254
    21d0:	6e 5f       	subi	r22, 0xFE	; 254
    21d2:	7f 4f       	sbci	r23, 0xFF	; 255
    21d4:	8f 4f       	sbci	r24, 0xFF	; 255
    21d6:	9f 4f       	sbci	r25, 0xFF	; 255
    21d8:	af 4f       	sbci	r26, 0xFF	; 255
    21da:	b1 e0       	ldi	r27, 0x01	; 1
    21dc:	3e d0       	rcall	.+124    	; 0x225a <__ultoa_invert+0x9c>
    21de:	b4 e0       	ldi	r27, 0x04	; 4
    21e0:	3c d0       	rcall	.+120    	; 0x225a <__ultoa_invert+0x9c>
    21e2:	67 0f       	add	r22, r23
    21e4:	78 1f       	adc	r23, r24
    21e6:	89 1f       	adc	r24, r25
    21e8:	9a 1f       	adc	r25, r26
    21ea:	a1 1d       	adc	r26, r1
    21ec:	68 0f       	add	r22, r24
    21ee:	79 1f       	adc	r23, r25
    21f0:	8a 1f       	adc	r24, r26
    21f2:	91 1d       	adc	r25, r1
    21f4:	a1 1d       	adc	r26, r1
    21f6:	6a 0f       	add	r22, r26
    21f8:	71 1d       	adc	r23, r1
    21fa:	81 1d       	adc	r24, r1
    21fc:	91 1d       	adc	r25, r1
    21fe:	a1 1d       	adc	r26, r1
    2200:	20 d0       	rcall	.+64     	; 0x2242 <__ultoa_invert+0x84>
    2202:	09 f4       	brne	.+2      	; 0x2206 <__ultoa_invert+0x48>
    2204:	68 94       	set
    2206:	3f 91       	pop	r19
    2208:	2a e0       	ldi	r18, 0x0A	; 10
    220a:	26 9f       	mul	r18, r22
    220c:	11 24       	eor	r1, r1
    220e:	30 19       	sub	r19, r0
    2210:	30 5d       	subi	r19, 0xD0	; 208
    2212:	31 93       	st	Z+, r19
    2214:	de f6       	brtc	.-74     	; 0x21cc <__ultoa_invert+0xe>
    2216:	cf 01       	movw	r24, r30
    2218:	08 95       	ret
    221a:	46 2f       	mov	r20, r22
    221c:	47 70       	andi	r20, 0x07	; 7
    221e:	40 5d       	subi	r20, 0xD0	; 208
    2220:	41 93       	st	Z+, r20
    2222:	b3 e0       	ldi	r27, 0x03	; 3
    2224:	0f d0       	rcall	.+30     	; 0x2244 <__ultoa_invert+0x86>
    2226:	c9 f7       	brne	.-14     	; 0x221a <__ultoa_invert+0x5c>
    2228:	f6 cf       	rjmp	.-20     	; 0x2216 <__ultoa_invert+0x58>
    222a:	46 2f       	mov	r20, r22
    222c:	4f 70       	andi	r20, 0x0F	; 15
    222e:	40 5d       	subi	r20, 0xD0	; 208
    2230:	4a 33       	cpi	r20, 0x3A	; 58
    2232:	18 f0       	brcs	.+6      	; 0x223a <__ultoa_invert+0x7c>
    2234:	49 5d       	subi	r20, 0xD9	; 217
    2236:	31 fd       	sbrc	r19, 1
    2238:	40 52       	subi	r20, 0x20	; 32
    223a:	41 93       	st	Z+, r20
    223c:	02 d0       	rcall	.+4      	; 0x2242 <__ultoa_invert+0x84>
    223e:	a9 f7       	brne	.-22     	; 0x222a <__ultoa_invert+0x6c>
    2240:	ea cf       	rjmp	.-44     	; 0x2216 <__ultoa_invert+0x58>
    2242:	b4 e0       	ldi	r27, 0x04	; 4
    2244:	a6 95       	lsr	r26
    2246:	97 95       	ror	r25
    2248:	87 95       	ror	r24
    224a:	77 95       	ror	r23
    224c:	67 95       	ror	r22
    224e:	ba 95       	dec	r27
    2250:	c9 f7       	brne	.-14     	; 0x2244 <__ultoa_invert+0x86>
    2252:	00 97       	sbiw	r24, 0x00	; 0
    2254:	61 05       	cpc	r22, r1
    2256:	71 05       	cpc	r23, r1
    2258:	08 95       	ret
    225a:	9b 01       	movw	r18, r22
    225c:	ac 01       	movw	r20, r24
    225e:	0a 2e       	mov	r0, r26
    2260:	06 94       	lsr	r0
    2262:	57 95       	ror	r21
    2264:	47 95       	ror	r20
    2266:	37 95       	ror	r19
    2268:	27 95       	ror	r18
    226a:	ba 95       	dec	r27
    226c:	c9 f7       	brne	.-14     	; 0x2260 <__ultoa_invert+0xa2>
    226e:	62 0f       	add	r22, r18
    2270:	73 1f       	adc	r23, r19
    2272:	84 1f       	adc	r24, r20
    2274:	95 1f       	adc	r25, r21
    2276:	a0 1d       	adc	r26, r0
    2278:	08 95       	ret

0000227a <_exit>:
    227a:	f8 94       	cli

0000227c <__stop_program>:
    227c:	ff cf       	rjmp	.-2      	; 0x227c <__stop_program>
